
.pio\build\debug\main.elf:     file format elf32-littleriscv


Disassembly of section .text.init:

80000000 <_start>:
80000000:	0000100f          	fence.i
80000004:	4081                	li	ra,0
80000006:	4101                	li	sp,0
80000008:	4181                	li	gp,0
8000000a:	4201                	li	tp,0
8000000c:	4281                	li	t0,0
8000000e:	4301                	li	t1,0
80000010:	4381                	li	t2,0
80000012:	4401                	li	s0,0
80000014:	4481                	li	s1,0
80000016:	4501                	li	a0,0
80000018:	4581                	li	a1,0
8000001a:	4601                	li	a2,0
8000001c:	4681                	li	a3,0
8000001e:	4701                	li	a4,0
80000020:	4781                	li	a5,0
80000022:	4801                	li	a6,0
80000024:	4881                	li	a7,0
80000026:	4901                	li	s2,0
80000028:	4981                	li	s3,0
8000002a:	4a01                	li	s4,0
8000002c:	4a81                	li	s5,0
8000002e:	4b01                	li	s6,0
80000030:	4b81                	li	s7,0
80000032:	4c01                	li	s8,0
80000034:	4c81                	li	s9,0
80000036:	4d01                	li	s10,0
80000038:	4d81                	li	s11,0
8000003a:	4e01                	li	t3,0
8000003c:	4e81                	li	t4,0
8000003e:	4f01                	li	t5,0
80000040:	4f81                	li	t6,0
80000042:	62f9                	lui	t0,0x1e
80000044:	3002a073          	csrs	mstatus,t0
80000048:	00000297          	auipc	t0,0x0
8000004c:	09028293          	addi	t0,t0,144 # 800000d8 <_start+0xd8>
80000050:	30529073          	csrw	mtvec,t0
80000054:	00301073          	fscsr	zero
80000058:	f0000053          	fmv.w.x	ft0,zero
8000005c:	f00000d3          	fmv.w.x	ft1,zero
80000060:	f0000153          	fmv.w.x	ft2,zero
80000064:	f00001d3          	fmv.w.x	ft3,zero
80000068:	f0000253          	fmv.w.x	ft4,zero
8000006c:	f00002d3          	fmv.w.x	ft5,zero
80000070:	f0000353          	fmv.w.x	ft6,zero
80000074:	f00003d3          	fmv.w.x	ft7,zero
80000078:	f0000453          	fmv.w.x	fs0,zero
8000007c:	f00004d3          	fmv.w.x	fs1,zero
80000080:	f0000553          	fmv.w.x	fa0,zero
80000084:	f00005d3          	fmv.w.x	fa1,zero
80000088:	f0000653          	fmv.w.x	fa2,zero
8000008c:	f00006d3          	fmv.w.x	fa3,zero
80000090:	f0000753          	fmv.w.x	fa4,zero
80000094:	f00007d3          	fmv.w.x	fa5,zero
80000098:	f0000853          	fmv.w.x	fa6,zero
8000009c:	f00008d3          	fmv.w.x	fa7,zero
800000a0:	f0000953          	fmv.w.x	fs2,zero
800000a4:	f00009d3          	fmv.w.x	fs3,zero
800000a8:	f0000a53          	fmv.w.x	fs4,zero
800000ac:	f0000ad3          	fmv.w.x	fs5,zero
800000b0:	f0000b53          	fmv.w.x	fs6,zero
800000b4:	f0000bd3          	fmv.w.x	fs7,zero
800000b8:	f0000c53          	fmv.w.x	fs8,zero
800000bc:	f0000cd3          	fmv.w.x	fs9,zero
800000c0:	f0000d53          	fmv.w.x	fs10,zero
800000c4:	f0000dd3          	fmv.w.x	fs11,zero
800000c8:	f0000e53          	fmv.w.x	ft8,zero
800000cc:	f0000ed3          	fmv.w.x	ft9,zero
800000d0:	f0000f53          	fmv.w.x	ft10,zero
800000d4:	f0000fd3          	fmv.w.x	ft11,zero
800000d8:	00000297          	auipc	t0,0x0
800000dc:	02028293          	addi	t0,t0,32 # 800000f8 <trap_entry>
800000e0:	30529073          	csrw	mtvec,t0
800000e4:	a0001197          	auipc	gp,0xa0001
800000e8:	19818193          	addi	gp,gp,408 # 2000127c <__global_pointer$>
800000ec:	a0020117          	auipc	sp,0xa0020
800000f0:	f1410113          	addi	sp,sp,-236 # 20020000 <__stack_pointer$>
800000f4:	1260006f          	j	8000021a <_init>

800000f8 <trap_entry>:
800000f8:	7119                	addi	sp,sp,-128
800000fa:	e002                	fsw	ft0,0(sp)
800000fc:	e206                	fsw	ft1,4(sp)
800000fe:	e40a                	fsw	ft2,8(sp)
80000100:	e60e                	fsw	ft3,12(sp)
80000102:	e812                	fsw	ft4,16(sp)
80000104:	ea16                	fsw	ft5,20(sp)
80000106:	ec1a                	fsw	ft6,24(sp)
80000108:	ee1e                	fsw	ft7,28(sp)
8000010a:	f022                	fsw	fs0,32(sp)
8000010c:	f226                	fsw	fs1,36(sp)
8000010e:	f42a                	fsw	fa0,40(sp)
80000110:	f62e                	fsw	fa1,44(sp)
80000112:	f832                	fsw	fa2,48(sp)
80000114:	fa36                	fsw	fa3,52(sp)
80000116:	fc3a                	fsw	fa4,56(sp)
80000118:	fe3e                	fsw	fa5,60(sp)
8000011a:	e0c2                	fsw	fa6,64(sp)
8000011c:	e2c6                	fsw	fa7,68(sp)
8000011e:	e4ca                	fsw	fs2,72(sp)
80000120:	e6ce                	fsw	fs3,76(sp)
80000122:	e8d2                	fsw	fs4,80(sp)
80000124:	ead6                	fsw	fs5,84(sp)
80000126:	ecda                	fsw	fs6,88(sp)
80000128:	eede                	fsw	fs7,92(sp)
8000012a:	f0e2                	fsw	fs8,96(sp)
8000012c:	f2e6                	fsw	fs9,100(sp)
8000012e:	f4ea                	fsw	fs10,104(sp)
80000130:	f6ee                	fsw	fs11,108(sp)
80000132:	f8f2                	fsw	ft8,112(sp)
80000134:	faf6                	fsw	ft9,116(sp)
80000136:	fcfa                	fsw	ft10,120(sp)
80000138:	fefe                	fsw	ft11,124(sp)
8000013a:	7119                	addi	sp,sp,-128
8000013c:	c006                	sw	ra,0(sp)
8000013e:	c20a                	sw	sp,4(sp)
80000140:	c40e                	sw	gp,8(sp)
80000142:	c612                	sw	tp,12(sp)
80000144:	c816                	sw	t0,16(sp)
80000146:	ca1a                	sw	t1,20(sp)
80000148:	cc1e                	sw	t2,24(sp)
8000014a:	ce22                	sw	s0,28(sp)
8000014c:	d026                	sw	s1,32(sp)
8000014e:	d22a                	sw	a0,36(sp)
80000150:	d42e                	sw	a1,40(sp)
80000152:	d632                	sw	a2,44(sp)
80000154:	d836                	sw	a3,48(sp)
80000156:	da3a                	sw	a4,52(sp)
80000158:	dc3e                	sw	a5,56(sp)
8000015a:	de42                	sw	a6,60(sp)
8000015c:	c0c6                	sw	a7,64(sp)
8000015e:	c2ca                	sw	s2,68(sp)
80000160:	c4ce                	sw	s3,72(sp)
80000162:	c6d2                	sw	s4,76(sp)
80000164:	c8d6                	sw	s5,80(sp)
80000166:	cada                	sw	s6,84(sp)
80000168:	ccde                	sw	s7,88(sp)
8000016a:	cee2                	sw	s8,92(sp)
8000016c:	d0e6                	sw	s9,96(sp)
8000016e:	d2ea                	sw	s10,100(sp)
80000170:	d4ee                	sw	s11,104(sp)
80000172:	d6f2                	sw	t3,108(sp)
80000174:	d8f6                	sw	t4,112(sp)
80000176:	dafa                	sw	t5,116(sp)
80000178:	dcfe                	sw	t6,120(sp)
8000017a:	34202573          	csrr	a0,mcause
8000017e:	341025f3          	csrr	a1,mepc
80000182:	deae                	sw	a1,124(sp)
80000184:	860a                	mv	a2,sp
80000186:	6f1010ef          	jal	ra,80002076 <handle_trap>
8000018a:	6289                	lui	t0,0x2
8000018c:	80028293          	addi	t0,t0,-2048 # 1800 <__stack_size+0x800>
80000190:	3002a073          	csrs	mstatus,t0
80000194:	4082                	lw	ra,0(sp)
80000196:	4112                	lw	sp,4(sp)
80000198:	41a2                	lw	gp,8(sp)
8000019a:	4232                	lw	tp,12(sp)
8000019c:	42c2                	lw	t0,16(sp)
8000019e:	4352                	lw	t1,20(sp)
800001a0:	43e2                	lw	t2,24(sp)
800001a2:	4472                	lw	s0,28(sp)
800001a4:	5482                	lw	s1,32(sp)
800001a6:	5512                	lw	a0,36(sp)
800001a8:	55a2                	lw	a1,40(sp)
800001aa:	5632                	lw	a2,44(sp)
800001ac:	56c2                	lw	a3,48(sp)
800001ae:	5752                	lw	a4,52(sp)
800001b0:	57e2                	lw	a5,56(sp)
800001b2:	5872                	lw	a6,60(sp)
800001b4:	4886                	lw	a7,64(sp)
800001b6:	4916                	lw	s2,68(sp)
800001b8:	49a6                	lw	s3,72(sp)
800001ba:	4a36                	lw	s4,76(sp)
800001bc:	4ac6                	lw	s5,80(sp)
800001be:	4b56                	lw	s6,84(sp)
800001c0:	4be6                	lw	s7,88(sp)
800001c2:	4c76                	lw	s8,92(sp)
800001c4:	5c86                	lw	s9,96(sp)
800001c6:	5d16                	lw	s10,100(sp)
800001c8:	5da6                	lw	s11,104(sp)
800001ca:	5e36                	lw	t3,108(sp)
800001cc:	5ec6                	lw	t4,112(sp)
800001ce:	5f56                	lw	t5,116(sp)
800001d0:	5fe6                	lw	t6,120(sp)
800001d2:	6109                	addi	sp,sp,128
800001d4:	6002                	flw	ft0,0(sp)
800001d6:	6092                	flw	ft1,4(sp)
800001d8:	6122                	flw	ft2,8(sp)
800001da:	61b2                	flw	ft3,12(sp)
800001dc:	6242                	flw	ft4,16(sp)
800001de:	62d2                	flw	ft5,20(sp)
800001e0:	6362                	flw	ft6,24(sp)
800001e2:	63f2                	flw	ft7,28(sp)
800001e4:	7402                	flw	fs0,32(sp)
800001e6:	7492                	flw	fs1,36(sp)
800001e8:	7522                	flw	fa0,40(sp)
800001ea:	75b2                	flw	fa1,44(sp)
800001ec:	7642                	flw	fa2,48(sp)
800001ee:	76d2                	flw	fa3,52(sp)
800001f0:	7762                	flw	fa4,56(sp)
800001f2:	77f2                	flw	fa5,60(sp)
800001f4:	6806                	flw	fa6,64(sp)
800001f6:	6896                	flw	fa7,68(sp)
800001f8:	6926                	flw	fs2,72(sp)
800001fa:	69b6                	flw	fs3,76(sp)
800001fc:	6a46                	flw	fs4,80(sp)
800001fe:	6ad6                	flw	fs5,84(sp)
80000200:	6b66                	flw	fs6,88(sp)
80000202:	6bf6                	flw	fs7,92(sp)
80000204:	7c06                	flw	fs8,96(sp)
80000206:	7c96                	flw	fs9,100(sp)
80000208:	7d26                	flw	fs10,104(sp)
8000020a:	7db6                	flw	fs11,108(sp)
8000020c:	7e46                	flw	ft8,112(sp)
8000020e:	7ed6                	flw	ft9,116(sp)
80000210:	7f66                	flw	ft10,120(sp)
80000212:	7ff6                	flw	ft11,124(sp)
80000214:	6109                	addi	sp,sp,128
80000216:	30200073          	mret

8000021a <_init>:
8000021a:	7179                	addi	sp,sp,-48
8000021c:	d606                	sw	ra,44(sp)
8000021e:	d422                	sw	s0,40(sp)
80000220:	1800                	addi	s0,sp,48
80000222:	fca42e23          	sw	a0,-36(s0)
80000226:	00000793          	li	a5,0
8000022a:	863e                	mv	a2,a5
8000022c:	800007b7          	lui	a5,0x80000
80000230:	44878593          	addi	a1,a5,1096 # 80000448 <__sdata_lma+0xffffc344>
80000234:	800007b7          	lui	a5,0x80000
80000238:	44878513          	addi	a0,a5,1096 # 80000448 <__sdata_lma+0xffffc344>
8000023c:	2859                	jal	800002d2 <memcpy>
8000023e:	00000793          	li	a5,0
80000242:	863e                	mv	a2,a5
80000244:	800007b7          	lui	a5,0x80000
80000248:	44878593          	addi	a1,a5,1096 # 80000448 <__sdata_lma+0xffffc344>
8000024c:	100007b7          	lui	a5,0x10000
80000250:	00078513          	mv	a0,a5
80000254:	28bd                	jal	800002d2 <memcpy>
80000256:	6785                	lui	a5,0x1
80000258:	a7c78793          	addi	a5,a5,-1412 # a7c <__data_size>
8000025c:	863e                	mv	a2,a5
8000025e:	800037b7          	lui	a5,0x80003
80000262:	68878593          	addi	a1,a5,1672 # 80003688 <__sdata_lma+0xfffff584>
80000266:	200007b7          	lui	a5,0x20000
8000026a:	00078513          	mv	a0,a5
8000026e:	2095                	jal	800002d2 <memcpy>
80000270:	00800793          	li	a5,8
80000274:	863e                	mv	a2,a5
80000276:	800047b7          	lui	a5,0x80004
8000027a:	10478593          	addi	a1,a5,260 # 80004104 <__sdata_lma+0x0>
8000027e:	200017b7          	lui	a5,0x20001
80000282:	a7c78513          	addi	a0,a5,-1412 # 20000a7c <plic_isr>
80000286:	20b1                	jal	800002d2 <memcpy>
80000288:	00000793          	li	a5,0
8000028c:	863e                	mv	a2,a5
8000028e:	800007b7          	lui	a5,0x80000
80000292:	44878593          	addi	a1,a5,1096 # 80000448 <__sdata_lma+0xffffc344>
80000296:	200007b7          	lui	a5,0x20000
8000029a:	00078513          	mv	a0,a5
8000029e:	2815                	jal	800002d2 <memcpy>
800002a0:	00000793          	li	a5,0
800002a4:	863e                	mv	a2,a5
800002a6:	4581                	li	a1,0
800002a8:	80818513          	addi	a0,gp,-2040 # 20000a84 <MSG_UART>
800002ac:	28f9                	jal	8000038a <memset>
800002ae:	00400793          	li	a5,4
800002b2:	863e                	mv	a2,a5
800002b4:	4581                	li	a1,0
800002b6:	80818513          	addi	a0,gp,-2040 # 20000a84 <MSG_UART>
800002ba:	28c1                	jal	8000038a <memset>
800002bc:	4581                	li	a1,0
800002be:	4501                	li	a0,0
800002c0:	138010ef          	jal	ra,800013f8 <main>
800002c4:	fea42623          	sw	a0,-20(s0)
800002c8:	0001                	nop
800002ca:	50b2                	lw	ra,44(sp)
800002cc:	5422                	lw	s0,40(sp)
800002ce:	6145                	addi	sp,sp,48
800002d0:	8082                	ret

800002d2 <memcpy>:
800002d2:	7179                	addi	sp,sp,-48
800002d4:	d622                	sw	s0,44(sp)
800002d6:	1800                	addi	s0,sp,48
800002d8:	fca42e23          	sw	a0,-36(s0)
800002dc:	fcb42c23          	sw	a1,-40(s0)
800002e0:	fcc42a23          	sw	a2,-44(s0)
800002e4:	fdc42703          	lw	a4,-36(s0)
800002e8:	fd842783          	lw	a5,-40(s0)
800002ec:	8f5d                	or	a4,a4,a5
800002ee:	fd442783          	lw	a5,-44(s0)
800002f2:	8fd9                	or	a5,a5,a4
800002f4:	8b8d                	andi	a5,a5,3
800002f6:	e3b1                	bnez	a5,8000033a <memcpy+0x68>
800002f8:	fd842783          	lw	a5,-40(s0)
800002fc:	fef42623          	sw	a5,-20(s0)
80000300:	fdc42783          	lw	a5,-36(s0)
80000304:	fef42423          	sw	a5,-24(s0)
80000308:	a839                	j	80000326 <memcpy+0x54>
8000030a:	fec42703          	lw	a4,-20(s0)
8000030e:	00470793          	addi	a5,a4,4
80000312:	fef42623          	sw	a5,-20(s0)
80000316:	fe842783          	lw	a5,-24(s0)
8000031a:	00478693          	addi	a3,a5,4 # 20000004 <tfont12+0x4>
8000031e:	fed42423          	sw	a3,-24(s0)
80000322:	4318                	lw	a4,0(a4)
80000324:	c398                	sw	a4,0(a5)
80000326:	fdc42703          	lw	a4,-36(s0)
8000032a:	fd442783          	lw	a5,-44(s0)
8000032e:	97ba                	add	a5,a5,a4
80000330:	fe842703          	lw	a4,-24(s0)
80000334:	fcf76be3          	bltu	a4,a5,8000030a <memcpy+0x38>
80000338:	a099                	j	8000037e <memcpy+0xac>
8000033a:	fd842783          	lw	a5,-40(s0)
8000033e:	fef42223          	sw	a5,-28(s0)
80000342:	fdc42783          	lw	a5,-36(s0)
80000346:	fef42023          	sw	a5,-32(s0)
8000034a:	a00d                	j	8000036c <memcpy+0x9a>
8000034c:	fe442703          	lw	a4,-28(s0)
80000350:	00170793          	addi	a5,a4,1
80000354:	fef42223          	sw	a5,-28(s0)
80000358:	fe042783          	lw	a5,-32(s0)
8000035c:	00178693          	addi	a3,a5,1
80000360:	fed42023          	sw	a3,-32(s0)
80000364:	00074703          	lbu	a4,0(a4)
80000368:	00e78023          	sb	a4,0(a5)
8000036c:	fdc42703          	lw	a4,-36(s0)
80000370:	fd442783          	lw	a5,-44(s0)
80000374:	97ba                	add	a5,a5,a4
80000376:	fe042703          	lw	a4,-32(s0)
8000037a:	fcf769e3          	bltu	a4,a5,8000034c <memcpy+0x7a>
8000037e:	fdc42783          	lw	a5,-36(s0)
80000382:	853e                	mv	a0,a5
80000384:	5432                	lw	s0,44(sp)
80000386:	6145                	addi	sp,sp,48
80000388:	8082                	ret

8000038a <memset>:
8000038a:	7179                	addi	sp,sp,-48
8000038c:	d622                	sw	s0,44(sp)
8000038e:	1800                	addi	s0,sp,48
80000390:	fca42e23          	sw	a0,-36(s0)
80000394:	fcb42c23          	sw	a1,-40(s0)
80000398:	fcc42a23          	sw	a2,-44(s0)
8000039c:	fdc42703          	lw	a4,-36(s0)
800003a0:	fd442783          	lw	a5,-44(s0)
800003a4:	8fd9                	or	a5,a5,a4
800003a6:	8b8d                	andi	a5,a5,3
800003a8:	efb9                	bnez	a5,80000406 <memset+0x7c>
800003aa:	fd842783          	lw	a5,-40(s0)
800003ae:	0ff7f793          	zext.b	a5,a5
800003b2:	fef42223          	sw	a5,-28(s0)
800003b6:	fe442783          	lw	a5,-28(s0)
800003ba:	07a2                	slli	a5,a5,0x8
800003bc:	fe442703          	lw	a4,-28(s0)
800003c0:	8fd9                	or	a5,a5,a4
800003c2:	fef42223          	sw	a5,-28(s0)
800003c6:	fe442783          	lw	a5,-28(s0)
800003ca:	07c2                	slli	a5,a5,0x10
800003cc:	fe442703          	lw	a4,-28(s0)
800003d0:	8fd9                	or	a5,a5,a4
800003d2:	fef42223          	sw	a5,-28(s0)
800003d6:	fdc42783          	lw	a5,-36(s0)
800003da:	fef42623          	sw	a5,-20(s0)
800003de:	a811                	j	800003f2 <memset+0x68>
800003e0:	fec42783          	lw	a5,-20(s0)
800003e4:	00478713          	addi	a4,a5,4
800003e8:	fee42623          	sw	a4,-20(s0)
800003ec:	fe442703          	lw	a4,-28(s0)
800003f0:	c398                	sw	a4,0(a5)
800003f2:	fdc42703          	lw	a4,-36(s0)
800003f6:	fd442783          	lw	a5,-44(s0)
800003fa:	97ba                	add	a5,a5,a4
800003fc:	fec42703          	lw	a4,-20(s0)
80000400:	fef760e3          	bltu	a4,a5,800003e0 <memset+0x56>
80000404:	a81d                	j	8000043a <memset+0xb0>
80000406:	fdc42783          	lw	a5,-36(s0)
8000040a:	fef42423          	sw	a5,-24(s0)
8000040e:	a829                	j	80000428 <memset+0x9e>
80000410:	fe842783          	lw	a5,-24(s0)
80000414:	00178713          	addi	a4,a5,1
80000418:	fee42423          	sw	a4,-24(s0)
8000041c:	fd842703          	lw	a4,-40(s0)
80000420:	0ff77713          	zext.b	a4,a4
80000424:	00e78023          	sb	a4,0(a5)
80000428:	fdc42703          	lw	a4,-36(s0)
8000042c:	fd442783          	lw	a5,-44(s0)
80000430:	97ba                	add	a5,a5,a4
80000432:	fe842703          	lw	a4,-24(s0)
80000436:	fcf76de3          	bltu	a4,a5,80000410 <memset+0x86>
8000043a:	fdc42783          	lw	a5,-36(s0)
8000043e:	853e                	mv	a0,a5
80000440:	5432                	lw	s0,44(sp)
80000442:	6145                	addi	sp,sp,48
80000444:	8082                	ret
	...

Disassembly of section .text:

80000448 <LCD_Fill>:
80000448:	7179                	addi	sp,sp,-48
8000044a:	d606                	sw	ra,44(sp)
8000044c:	d422                	sw	s0,40(sp)
8000044e:	1800                	addi	s0,sp,48
80000450:	87aa                	mv	a5,a0
80000452:	fcf41f23          	sh	a5,-34(s0)
80000456:	87ae                	mv	a5,a1
80000458:	fcf41e23          	sh	a5,-36(s0)
8000045c:	87b2                	mv	a5,a2
8000045e:	fcf41d23          	sh	a5,-38(s0)
80000462:	87b6                	mv	a5,a3
80000464:	fcf41c23          	sh	a5,-40(s0)
80000468:	87ba                	mv	a5,a4
8000046a:	fcf41b23          	sh	a5,-42(s0)
8000046e:	fda45783          	lhu	a5,-38(s0)
80000472:	17fd                	addi	a5,a5,-1
80000474:	01079613          	slli	a2,a5,0x10
80000478:	8241                	srli	a2,a2,0x10
8000047a:	fd845783          	lhu	a5,-40(s0)
8000047e:	17fd                	addi	a5,a5,-1
80000480:	01079693          	slli	a3,a5,0x10
80000484:	82c1                	srli	a3,a3,0x10
80000486:	fdc45703          	lhu	a4,-36(s0)
8000048a:	fde45783          	lhu	a5,-34(s0)
8000048e:	85ba                	mv	a1,a4
80000490:	853e                	mv	a0,a5
80000492:	53d000ef          	jal	ra,800011ce <LCD_Address_Set>
80000496:	fdc45783          	lhu	a5,-36(s0)
8000049a:	fef41723          	sh	a5,-18(s0)
8000049e:	a81d                	j	800004d4 <LCD_Fill+0x8c>
800004a0:	fde45783          	lhu	a5,-34(s0)
800004a4:	fef41623          	sh	a5,-20(s0)
800004a8:	a819                	j	800004be <LCD_Fill+0x76>
800004aa:	fd645783          	lhu	a5,-42(s0)
800004ae:	853e                	mv	a0,a5
800004b0:	4b9000ef          	jal	ra,80001168 <LCD_WR_DATA>
800004b4:	fec45783          	lhu	a5,-20(s0)
800004b8:	0785                	addi	a5,a5,1
800004ba:	fef41623          	sh	a5,-20(s0)
800004be:	fec45703          	lhu	a4,-20(s0)
800004c2:	fda45783          	lhu	a5,-38(s0)
800004c6:	fef762e3          	bltu	a4,a5,800004aa <LCD_Fill+0x62>
800004ca:	fee45783          	lhu	a5,-18(s0)
800004ce:	0785                	addi	a5,a5,1
800004d0:	fef41723          	sh	a5,-18(s0)
800004d4:	fee45703          	lhu	a4,-18(s0)
800004d8:	fd845783          	lhu	a5,-40(s0)
800004dc:	fcf762e3          	bltu	a4,a5,800004a0 <LCD_Fill+0x58>
800004e0:	0001                	nop
800004e2:	0001                	nop
800004e4:	50b2                	lw	ra,44(sp)
800004e6:	5422                	lw	s0,40(sp)
800004e8:	6145                	addi	sp,sp,48
800004ea:	8082                	ret

800004ec <LCD_DrawPoint>:
800004ec:	1101                	addi	sp,sp,-32
800004ee:	ce06                	sw	ra,28(sp)
800004f0:	cc22                	sw	s0,24(sp)
800004f2:	1000                	addi	s0,sp,32
800004f4:	87aa                	mv	a5,a0
800004f6:	86ae                	mv	a3,a1
800004f8:	8732                	mv	a4,a2
800004fa:	fef41723          	sh	a5,-18(s0)
800004fe:	87b6                	mv	a5,a3
80000500:	fef41623          	sh	a5,-20(s0)
80000504:	87ba                	mv	a5,a4
80000506:	fef41523          	sh	a5,-22(s0)
8000050a:	fec45683          	lhu	a3,-20(s0)
8000050e:	fee45603          	lhu	a2,-18(s0)
80000512:	fec45703          	lhu	a4,-20(s0)
80000516:	fee45783          	lhu	a5,-18(s0)
8000051a:	85ba                	mv	a1,a4
8000051c:	853e                	mv	a0,a5
8000051e:	4b1000ef          	jal	ra,800011ce <LCD_Address_Set>
80000522:	fea45783          	lhu	a5,-22(s0)
80000526:	853e                	mv	a0,a5
80000528:	441000ef          	jal	ra,80001168 <LCD_WR_DATA>
8000052c:	0001                	nop
8000052e:	40f2                	lw	ra,28(sp)
80000530:	4462                	lw	s0,24(sp)
80000532:	6105                	addi	sp,sp,32
80000534:	8082                	ret

80000536 <LCD_ShowChinese>:
80000536:	1101                	addi	sp,sp,-32
80000538:	ce06                	sw	ra,28(sp)
8000053a:	cc22                	sw	s0,24(sp)
8000053c:	1000                	addi	s0,sp,32
8000053e:	88aa                	mv	a7,a0
80000540:	852e                	mv	a0,a1
80000542:	fec42423          	sw	a2,-24(s0)
80000546:	85b6                	mv	a1,a3
80000548:	863a                	mv	a2,a4
8000054a:	86be                	mv	a3,a5
8000054c:	8742                	mv	a4,a6
8000054e:	87c6                	mv	a5,a7
80000550:	fef41723          	sh	a5,-18(s0)
80000554:	87aa                	mv	a5,a0
80000556:	fef41623          	sh	a5,-20(s0)
8000055a:	87ae                	mv	a5,a1
8000055c:	fef41323          	sh	a5,-26(s0)
80000560:	87b2                	mv	a5,a2
80000562:	fef41223          	sh	a5,-28(s0)
80000566:	87b6                	mv	a5,a3
80000568:	fef401a3          	sb	a5,-29(s0)
8000056c:	87ba                	mv	a5,a4
8000056e:	fef40123          	sb	a5,-30(s0)
80000572:	a0f9                	j	80000640 <LCD_ShowChinese+0x10a>
80000574:	fe344703          	lbu	a4,-29(s0)
80000578:	47b1                	li	a5,12
8000057a:	02f71363          	bne	a4,a5,800005a0 <LCD_ShowChinese+0x6a>
8000057e:	fe244603          	lbu	a2,-30(s0)
80000582:	fe344783          	lbu	a5,-29(s0)
80000586:	fe445703          	lhu	a4,-28(s0)
8000058a:	fe645683          	lhu	a3,-26(s0)
8000058e:	fec45583          	lhu	a1,-20(s0)
80000592:	fee45503          	lhu	a0,-18(s0)
80000596:	8832                	mv	a6,a2
80000598:	fe842603          	lw	a2,-24(s0)
8000059c:	286d                	jal	80000656 <LCD_ShowChinese12x12>
8000059e:	a059                	j	80000624 <LCD_ShowChinese+0xee>
800005a0:	fe344703          	lbu	a4,-29(s0)
800005a4:	47c1                	li	a5,16
800005a6:	02f71363          	bne	a4,a5,800005cc <LCD_ShowChinese+0x96>
800005aa:	fe244603          	lbu	a2,-30(s0)
800005ae:	fe344783          	lbu	a5,-29(s0)
800005b2:	fe445703          	lhu	a4,-28(s0)
800005b6:	fe645683          	lhu	a3,-26(s0)
800005ba:	fec45583          	lhu	a1,-20(s0)
800005be:	fee45503          	lhu	a0,-18(s0)
800005c2:	8832                	mv	a6,a2
800005c4:	fe842603          	lw	a2,-24(s0)
800005c8:	24fd                	jal	800008b6 <LCD_ShowChinese16x16>
800005ca:	a8a9                	j	80000624 <LCD_ShowChinese+0xee>
800005cc:	fe344703          	lbu	a4,-29(s0)
800005d0:	47e1                	li	a5,24
800005d2:	02f71363          	bne	a4,a5,800005f8 <LCD_ShowChinese+0xc2>
800005d6:	fe244603          	lbu	a2,-30(s0)
800005da:	fe344783          	lbu	a5,-29(s0)
800005de:	fe445703          	lhu	a4,-28(s0)
800005e2:	fe645683          	lhu	a3,-26(s0)
800005e6:	fec45583          	lhu	a1,-20(s0)
800005ea:	fee45503          	lhu	a0,-18(s0)
800005ee:	8832                	mv	a6,a2
800005f0:	fe842603          	lw	a2,-24(s0)
800005f4:	2b39                	jal	80000b12 <LCD_ShowChinese24x24>
800005f6:	a03d                	j	80000624 <LCD_ShowChinese+0xee>
800005f8:	fe344703          	lbu	a4,-29(s0)
800005fc:	02000793          	li	a5,32
80000600:	04f71663          	bne	a4,a5,8000064c <LCD_ShowChinese+0x116>
80000604:	fe244603          	lbu	a2,-30(s0)
80000608:	fe344783          	lbu	a5,-29(s0)
8000060c:	fe445703          	lhu	a4,-28(s0)
80000610:	fe645683          	lhu	a3,-26(s0)
80000614:	fec45583          	lhu	a1,-20(s0)
80000618:	fee45503          	lhu	a0,-18(s0)
8000061c:	8832                	mv	a6,a2
8000061e:	fe842603          	lw	a2,-24(s0)
80000622:	2fb1                	jal	80000d7e <LCD_ShowChinese32x32>
80000624:	fe842783          	lw	a5,-24(s0)
80000628:	0789                	addi	a5,a5,2
8000062a:	fef42423          	sw	a5,-24(s0)
8000062e:	fe344783          	lbu	a5,-29(s0)
80000632:	07c2                	slli	a5,a5,0x10
80000634:	83c1                	srli	a5,a5,0x10
80000636:	fee45703          	lhu	a4,-18(s0)
8000063a:	97ba                	add	a5,a5,a4
8000063c:	fef41723          	sh	a5,-18(s0)
80000640:	fe842783          	lw	a5,-24(s0)
80000644:	0007c783          	lbu	a5,0(a5)
80000648:	f795                	bnez	a5,80000574 <LCD_ShowChinese+0x3e>
8000064a:	a011                	j	8000064e <LCD_ShowChinese+0x118>
8000064c:	0001                	nop
8000064e:	40f2                	lw	ra,28(sp)
80000650:	4462                	lw	s0,24(sp)
80000652:	6105                	addi	sp,sp,32
80000654:	8082                	ret

80000656 <LCD_ShowChinese12x12>:
80000656:	7179                	addi	sp,sp,-48
80000658:	d606                	sw	ra,44(sp)
8000065a:	d422                	sw	s0,40(sp)
8000065c:	1800                	addi	s0,sp,48
8000065e:	88aa                	mv	a7,a0
80000660:	852e                	mv	a0,a1
80000662:	fcc42c23          	sw	a2,-40(s0)
80000666:	85b6                	mv	a1,a3
80000668:	863a                	mv	a2,a4
8000066a:	86be                	mv	a3,a5
8000066c:	8742                	mv	a4,a6
8000066e:	87c6                	mv	a5,a7
80000670:	fcf41f23          	sh	a5,-34(s0)
80000674:	87aa                	mv	a5,a0
80000676:	fcf41e23          	sh	a5,-36(s0)
8000067a:	87ae                	mv	a5,a1
8000067c:	fcf41b23          	sh	a5,-42(s0)
80000680:	87b2                	mv	a5,a2
80000682:	fcf41a23          	sh	a5,-44(s0)
80000686:	87b6                	mv	a5,a3
80000688:	fcf409a3          	sb	a5,-45(s0)
8000068c:	87ba                	mv	a5,a4
8000068e:	fcf40923          	sb	a5,-46(s0)
80000692:	fe0406a3          	sb	zero,-19(s0)
80000696:	fde45783          	lhu	a5,-34(s0)
8000069a:	fef41423          	sh	a5,-24(s0)
8000069e:	fd344783          	lbu	a5,-45(s0)
800006a2:	838d                	srli	a5,a5,0x3
800006a4:	0ff7f793          	zext.b	a5,a5
800006a8:	873e                	mv	a4,a5
800006aa:	fd344783          	lbu	a5,-45(s0)
800006ae:	8b9d                	andi	a5,a5,7
800006b0:	0ff7f793          	zext.b	a5,a5
800006b4:	00f037b3          	snez	a5,a5
800006b8:	0ff7f793          	zext.b	a5,a5
800006bc:	97ba                	add	a5,a5,a4
800006be:	01079713          	slli	a4,a5,0x10
800006c2:	8341                	srli	a4,a4,0x10
800006c4:	fd344783          	lbu	a5,-45(s0)
800006c8:	07c2                	slli	a5,a5,0x10
800006ca:	83c1                	srli	a5,a5,0x10
800006cc:	02f707b3          	mul	a5,a4,a5
800006d0:	fef41323          	sh	a5,-26(s0)
800006d4:	4795                	li	a5,5
800006d6:	fef41223          	sh	a5,-28(s0)
800006da:	fe041523          	sh	zero,-22(s0)
800006de:	a2c1                	j	8000089e <LCD_ShowChinese12x12+0x248>
800006e0:	fea45703          	lhu	a4,-22(s0)
800006e4:	200007b7          	lui	a5,0x20000
800006e8:	00078693          	mv	a3,a5
800006ec:	87ba                	mv	a5,a4
800006ee:	078e                	slli	a5,a5,0x3
800006f0:	8f99                	sub	a5,a5,a4
800006f2:	078a                	slli	a5,a5,0x2
800006f4:	8f99                	sub	a5,a5,a4
800006f6:	97b6                	add	a5,a5,a3
800006f8:	0007c703          	lbu	a4,0(a5) # 20000000 <tfont12>
800006fc:	fd842783          	lw	a5,-40(s0)
80000700:	0007c783          	lbu	a5,0(a5)
80000704:	18f71763          	bne	a4,a5,80000892 <LCD_ShowChinese12x12+0x23c>
80000708:	fea45703          	lhu	a4,-22(s0)
8000070c:	200007b7          	lui	a5,0x20000
80000710:	00078693          	mv	a3,a5
80000714:	87ba                	mv	a5,a4
80000716:	078e                	slli	a5,a5,0x3
80000718:	8f99                	sub	a5,a5,a4
8000071a:	078a                	slli	a5,a5,0x2
8000071c:	8f99                	sub	a5,a5,a4
8000071e:	97b6                	add	a5,a5,a3
80000720:	0017c703          	lbu	a4,1(a5) # 20000001 <tfont12+0x1>
80000724:	fd842783          	lw	a5,-40(s0)
80000728:	0785                	addi	a5,a5,1
8000072a:	0007c783          	lbu	a5,0(a5)
8000072e:	16f71263          	bne	a4,a5,80000892 <LCD_ShowChinese12x12+0x23c>
80000732:	fd344783          	lbu	a5,-45(s0)
80000736:	07c2                	slli	a5,a5,0x10
80000738:	83c1                	srli	a5,a5,0x10
8000073a:	fde45703          	lhu	a4,-34(s0)
8000073e:	97ba                	add	a5,a5,a4
80000740:	07c2                	slli	a5,a5,0x10
80000742:	83c1                	srli	a5,a5,0x10
80000744:	17fd                	addi	a5,a5,-1
80000746:	01079613          	slli	a2,a5,0x10
8000074a:	8241                	srli	a2,a2,0x10
8000074c:	fd344783          	lbu	a5,-45(s0)
80000750:	07c2                	slli	a5,a5,0x10
80000752:	83c1                	srli	a5,a5,0x10
80000754:	fdc45703          	lhu	a4,-36(s0)
80000758:	97ba                	add	a5,a5,a4
8000075a:	07c2                	slli	a5,a5,0x10
8000075c:	83c1                	srli	a5,a5,0x10
8000075e:	17fd                	addi	a5,a5,-1
80000760:	01079693          	slli	a3,a5,0x10
80000764:	82c1                	srli	a3,a3,0x10
80000766:	fdc45703          	lhu	a4,-36(s0)
8000076a:	fde45783          	lhu	a5,-34(s0)
8000076e:	85ba                	mv	a1,a4
80000770:	853e                	mv	a0,a5
80000772:	25d000ef          	jal	ra,800011ce <LCD_Address_Set>
80000776:	fe0407a3          	sb	zero,-17(s0)
8000077a:	a221                	j	80000882 <LCD_ShowChinese12x12+0x22c>
8000077c:	fe040723          	sb	zero,-18(s0)
80000780:	a0fd                	j	8000086e <LCD_ShowChinese12x12+0x218>
80000782:	fd244783          	lbu	a5,-46(s0)
80000786:	e7ad                	bnez	a5,800007f0 <LCD_ShowChinese12x12+0x19a>
80000788:	fea45703          	lhu	a4,-22(s0)
8000078c:	fef44683          	lbu	a3,-17(s0)
80000790:	200007b7          	lui	a5,0x20000
80000794:	00078613          	mv	a2,a5
80000798:	87ba                	mv	a5,a4
8000079a:	078e                	slli	a5,a5,0x3
8000079c:	8f99                	sub	a5,a5,a4
8000079e:	078a                	slli	a5,a5,0x2
800007a0:	8f99                	sub	a5,a5,a4
800007a2:	97b2                	add	a5,a5,a2
800007a4:	97b6                	add	a5,a5,a3
800007a6:	0037c783          	lbu	a5,3(a5) # 20000003 <tfont12+0x3>
800007aa:	873e                	mv	a4,a5
800007ac:	fee44783          	lbu	a5,-18(s0)
800007b0:	40f757b3          	sra	a5,a4,a5
800007b4:	8b85                	andi	a5,a5,1
800007b6:	c799                	beqz	a5,800007c4 <LCD_ShowChinese12x12+0x16e>
800007b8:	fd645783          	lhu	a5,-42(s0)
800007bc:	853e                	mv	a0,a5
800007be:	1ab000ef          	jal	ra,80001168 <LCD_WR_DATA>
800007c2:	a031                	j	800007ce <LCD_ShowChinese12x12+0x178>
800007c4:	fd445783          	lhu	a5,-44(s0)
800007c8:	853e                	mv	a0,a5
800007ca:	19f000ef          	jal	ra,80001168 <LCD_WR_DATA>
800007ce:	fed44783          	lbu	a5,-19(s0)
800007d2:	0785                	addi	a5,a5,1
800007d4:	fef406a3          	sb	a5,-19(s0)
800007d8:	fed44703          	lbu	a4,-19(s0)
800007dc:	fd344783          	lbu	a5,-45(s0)
800007e0:	02f777b3          	remu	a5,a4,a5
800007e4:	0ff7f793          	zext.b	a5,a5
800007e8:	efb5                	bnez	a5,80000864 <LCD_ShowChinese12x12+0x20e>
800007ea:	fe0406a3          	sb	zero,-19(s0)
800007ee:	a069                	j	80000878 <LCD_ShowChinese12x12+0x222>
800007f0:	fea45703          	lhu	a4,-22(s0)
800007f4:	fef44683          	lbu	a3,-17(s0)
800007f8:	200007b7          	lui	a5,0x20000
800007fc:	00078613          	mv	a2,a5
80000800:	87ba                	mv	a5,a4
80000802:	078e                	slli	a5,a5,0x3
80000804:	8f99                	sub	a5,a5,a4
80000806:	078a                	slli	a5,a5,0x2
80000808:	8f99                	sub	a5,a5,a4
8000080a:	97b2                	add	a5,a5,a2
8000080c:	97b6                	add	a5,a5,a3
8000080e:	0037c783          	lbu	a5,3(a5) # 20000003 <tfont12+0x3>
80000812:	873e                	mv	a4,a5
80000814:	fee44783          	lbu	a5,-18(s0)
80000818:	40f757b3          	sra	a5,a4,a5
8000081c:	8b85                	andi	a5,a5,1
8000081e:	cb99                	beqz	a5,80000834 <LCD_ShowChinese12x12+0x1de>
80000820:	fd645683          	lhu	a3,-42(s0)
80000824:	fdc45703          	lhu	a4,-36(s0)
80000828:	fde45783          	lhu	a5,-34(s0)
8000082c:	8636                	mv	a2,a3
8000082e:	85ba                	mv	a1,a4
80000830:	853e                	mv	a0,a5
80000832:	396d                	jal	800004ec <LCD_DrawPoint>
80000834:	fde45783          	lhu	a5,-34(s0)
80000838:	0785                	addi	a5,a5,1
8000083a:	fcf41f23          	sh	a5,-34(s0)
8000083e:	fde45703          	lhu	a4,-34(s0)
80000842:	fe845783          	lhu	a5,-24(s0)
80000846:	8f1d                	sub	a4,a4,a5
80000848:	fd344783          	lbu	a5,-45(s0)
8000084c:	00f71c63          	bne	a4,a5,80000864 <LCD_ShowChinese12x12+0x20e>
80000850:	fe845783          	lhu	a5,-24(s0)
80000854:	fcf41f23          	sh	a5,-34(s0)
80000858:	fdc45783          	lhu	a5,-36(s0)
8000085c:	0785                	addi	a5,a5,1
8000085e:	fcf41e23          	sh	a5,-36(s0)
80000862:	a819                	j	80000878 <LCD_ShowChinese12x12+0x222>
80000864:	fee44783          	lbu	a5,-18(s0)
80000868:	0785                	addi	a5,a5,1
8000086a:	fef40723          	sb	a5,-18(s0)
8000086e:	fee44703          	lbu	a4,-18(s0)
80000872:	479d                	li	a5,7
80000874:	f0e7f7e3          	bgeu	a5,a4,80000782 <LCD_ShowChinese12x12+0x12c>
80000878:	fef44783          	lbu	a5,-17(s0)
8000087c:	0785                	addi	a5,a5,1
8000087e:	fef407a3          	sb	a5,-17(s0)
80000882:	fef44783          	lbu	a5,-17(s0)
80000886:	07c2                	slli	a5,a5,0x10
80000888:	83c1                	srli	a5,a5,0x10
8000088a:	fe645703          	lhu	a4,-26(s0)
8000088e:	eee7e7e3          	bltu	a5,a4,8000077c <LCD_ShowChinese12x12+0x126>
80000892:	0001                	nop
80000894:	fea45783          	lhu	a5,-22(s0)
80000898:	0785                	addi	a5,a5,1
8000089a:	fef41523          	sh	a5,-22(s0)
8000089e:	fea45703          	lhu	a4,-22(s0)
800008a2:	fe445783          	lhu	a5,-28(s0)
800008a6:	e2f76de3          	bltu	a4,a5,800006e0 <LCD_ShowChinese12x12+0x8a>
800008aa:	0001                	nop
800008ac:	0001                	nop
800008ae:	50b2                	lw	ra,44(sp)
800008b0:	5422                	lw	s0,40(sp)
800008b2:	6145                	addi	sp,sp,48
800008b4:	8082                	ret

800008b6 <LCD_ShowChinese16x16>:
800008b6:	7179                	addi	sp,sp,-48
800008b8:	d606                	sw	ra,44(sp)
800008ba:	d422                	sw	s0,40(sp)
800008bc:	1800                	addi	s0,sp,48
800008be:	88aa                	mv	a7,a0
800008c0:	852e                	mv	a0,a1
800008c2:	fcc42c23          	sw	a2,-40(s0)
800008c6:	85b6                	mv	a1,a3
800008c8:	863a                	mv	a2,a4
800008ca:	86be                	mv	a3,a5
800008cc:	8742                	mv	a4,a6
800008ce:	87c6                	mv	a5,a7
800008d0:	fcf41f23          	sh	a5,-34(s0)
800008d4:	87aa                	mv	a5,a0
800008d6:	fcf41e23          	sh	a5,-36(s0)
800008da:	87ae                	mv	a5,a1
800008dc:	fcf41b23          	sh	a5,-42(s0)
800008e0:	87b2                	mv	a5,a2
800008e2:	fcf41a23          	sh	a5,-44(s0)
800008e6:	87b6                	mv	a5,a3
800008e8:	fcf409a3          	sb	a5,-45(s0)
800008ec:	87ba                	mv	a5,a4
800008ee:	fcf40923          	sb	a5,-46(s0)
800008f2:	fe0406a3          	sb	zero,-19(s0)
800008f6:	fde45783          	lhu	a5,-34(s0)
800008fa:	fef41423          	sh	a5,-24(s0)
800008fe:	fd344783          	lbu	a5,-45(s0)
80000902:	838d                	srli	a5,a5,0x3
80000904:	0ff7f793          	zext.b	a5,a5
80000908:	873e                	mv	a4,a5
8000090a:	fd344783          	lbu	a5,-45(s0)
8000090e:	8b9d                	andi	a5,a5,7
80000910:	0ff7f793          	zext.b	a5,a5
80000914:	00f037b3          	snez	a5,a5
80000918:	0ff7f793          	zext.b	a5,a5
8000091c:	97ba                	add	a5,a5,a4
8000091e:	01079713          	slli	a4,a5,0x10
80000922:	8341                	srli	a4,a4,0x10
80000924:	fd344783          	lbu	a5,-45(s0)
80000928:	07c2                	slli	a5,a5,0x10
8000092a:	83c1                	srli	a5,a5,0x10
8000092c:	02f707b3          	mul	a5,a4,a5
80000930:	fef41323          	sh	a5,-26(s0)
80000934:	4795                	li	a5,5
80000936:	fef41223          	sh	a5,-28(s0)
8000093a:	fe041523          	sh	zero,-22(s0)
8000093e:	aa75                	j	80000afa <LCD_ShowChinese16x16+0x244>
80000940:	fea45703          	lhu	a4,-22(s0)
80000944:	200007b7          	lui	a5,0x20000
80000948:	08878693          	addi	a3,a5,136 # 20000088 <tfont16>
8000094c:	87ba                	mv	a5,a4
8000094e:	078e                	slli	a5,a5,0x3
80000950:	97ba                	add	a5,a5,a4
80000952:	078a                	slli	a5,a5,0x2
80000954:	8f99                	sub	a5,a5,a4
80000956:	97b6                	add	a5,a5,a3
80000958:	0007c703          	lbu	a4,0(a5)
8000095c:	fd842783          	lw	a5,-40(s0)
80000960:	0007c783          	lbu	a5,0(a5)
80000964:	18f71563          	bne	a4,a5,80000aee <LCD_ShowChinese16x16+0x238>
80000968:	fea45703          	lhu	a4,-22(s0)
8000096c:	200007b7          	lui	a5,0x20000
80000970:	08878693          	addi	a3,a5,136 # 20000088 <tfont16>
80000974:	87ba                	mv	a5,a4
80000976:	078e                	slli	a5,a5,0x3
80000978:	97ba                	add	a5,a5,a4
8000097a:	078a                	slli	a5,a5,0x2
8000097c:	8f99                	sub	a5,a5,a4
8000097e:	97b6                	add	a5,a5,a3
80000980:	0017c703          	lbu	a4,1(a5)
80000984:	fd842783          	lw	a5,-40(s0)
80000988:	0785                	addi	a5,a5,1
8000098a:	0007c783          	lbu	a5,0(a5)
8000098e:	16f71063          	bne	a4,a5,80000aee <LCD_ShowChinese16x16+0x238>
80000992:	fd344783          	lbu	a5,-45(s0)
80000996:	07c2                	slli	a5,a5,0x10
80000998:	83c1                	srli	a5,a5,0x10
8000099a:	fde45703          	lhu	a4,-34(s0)
8000099e:	97ba                	add	a5,a5,a4
800009a0:	07c2                	slli	a5,a5,0x10
800009a2:	83c1                	srli	a5,a5,0x10
800009a4:	17fd                	addi	a5,a5,-1
800009a6:	01079613          	slli	a2,a5,0x10
800009aa:	8241                	srli	a2,a2,0x10
800009ac:	fd344783          	lbu	a5,-45(s0)
800009b0:	07c2                	slli	a5,a5,0x10
800009b2:	83c1                	srli	a5,a5,0x10
800009b4:	fdc45703          	lhu	a4,-36(s0)
800009b8:	97ba                	add	a5,a5,a4
800009ba:	07c2                	slli	a5,a5,0x10
800009bc:	83c1                	srli	a5,a5,0x10
800009be:	17fd                	addi	a5,a5,-1
800009c0:	01079693          	slli	a3,a5,0x10
800009c4:	82c1                	srli	a3,a3,0x10
800009c6:	fdc45703          	lhu	a4,-36(s0)
800009ca:	fde45783          	lhu	a5,-34(s0)
800009ce:	85ba                	mv	a1,a4
800009d0:	853e                	mv	a0,a5
800009d2:	7fc000ef          	jal	ra,800011ce <LCD_Address_Set>
800009d6:	fe0407a3          	sb	zero,-17(s0)
800009da:	a211                	j	80000ade <LCD_ShowChinese16x16+0x228>
800009dc:	fe040723          	sb	zero,-18(s0)
800009e0:	a0ed                	j	80000aca <LCD_ShowChinese16x16+0x214>
800009e2:	fd244783          	lbu	a5,-46(s0)
800009e6:	e3bd                	bnez	a5,80000a4c <LCD_ShowChinese16x16+0x196>
800009e8:	fea45703          	lhu	a4,-22(s0)
800009ec:	fef44683          	lbu	a3,-17(s0)
800009f0:	200007b7          	lui	a5,0x20000
800009f4:	08878613          	addi	a2,a5,136 # 20000088 <tfont16>
800009f8:	87ba                	mv	a5,a4
800009fa:	078e                	slli	a5,a5,0x3
800009fc:	97ba                	add	a5,a5,a4
800009fe:	078a                	slli	a5,a5,0x2
80000a00:	8f99                	sub	a5,a5,a4
80000a02:	97b2                	add	a5,a5,a2
80000a04:	97b6                	add	a5,a5,a3
80000a06:	0037c783          	lbu	a5,3(a5)
80000a0a:	873e                	mv	a4,a5
80000a0c:	fee44783          	lbu	a5,-18(s0)
80000a10:	40f757b3          	sra	a5,a4,a5
80000a14:	8b85                	andi	a5,a5,1
80000a16:	c791                	beqz	a5,80000a22 <LCD_ShowChinese16x16+0x16c>
80000a18:	fd645783          	lhu	a5,-42(s0)
80000a1c:	853e                	mv	a0,a5
80000a1e:	27a9                	jal	80001168 <LCD_WR_DATA>
80000a20:	a029                	j	80000a2a <LCD_ShowChinese16x16+0x174>
80000a22:	fd445783          	lhu	a5,-44(s0)
80000a26:	853e                	mv	a0,a5
80000a28:	2781                	jal	80001168 <LCD_WR_DATA>
80000a2a:	fed44783          	lbu	a5,-19(s0)
80000a2e:	0785                	addi	a5,a5,1
80000a30:	fef406a3          	sb	a5,-19(s0)
80000a34:	fed44703          	lbu	a4,-19(s0)
80000a38:	fd344783          	lbu	a5,-45(s0)
80000a3c:	02f777b3          	remu	a5,a4,a5
80000a40:	0ff7f793          	zext.b	a5,a5
80000a44:	efb5                	bnez	a5,80000ac0 <LCD_ShowChinese16x16+0x20a>
80000a46:	fe0406a3          	sb	zero,-19(s0)
80000a4a:	a069                	j	80000ad4 <LCD_ShowChinese16x16+0x21e>
80000a4c:	fea45703          	lhu	a4,-22(s0)
80000a50:	fef44683          	lbu	a3,-17(s0)
80000a54:	200007b7          	lui	a5,0x20000
80000a58:	08878613          	addi	a2,a5,136 # 20000088 <tfont16>
80000a5c:	87ba                	mv	a5,a4
80000a5e:	078e                	slli	a5,a5,0x3
80000a60:	97ba                	add	a5,a5,a4
80000a62:	078a                	slli	a5,a5,0x2
80000a64:	8f99                	sub	a5,a5,a4
80000a66:	97b2                	add	a5,a5,a2
80000a68:	97b6                	add	a5,a5,a3
80000a6a:	0037c783          	lbu	a5,3(a5)
80000a6e:	873e                	mv	a4,a5
80000a70:	fee44783          	lbu	a5,-18(s0)
80000a74:	40f757b3          	sra	a5,a4,a5
80000a78:	8b85                	andi	a5,a5,1
80000a7a:	cb99                	beqz	a5,80000a90 <LCD_ShowChinese16x16+0x1da>
80000a7c:	fd645683          	lhu	a3,-42(s0)
80000a80:	fdc45703          	lhu	a4,-36(s0)
80000a84:	fde45783          	lhu	a5,-34(s0)
80000a88:	8636                	mv	a2,a3
80000a8a:	85ba                	mv	a1,a4
80000a8c:	853e                	mv	a0,a5
80000a8e:	3cb9                	jal	800004ec <LCD_DrawPoint>
80000a90:	fde45783          	lhu	a5,-34(s0)
80000a94:	0785                	addi	a5,a5,1
80000a96:	fcf41f23          	sh	a5,-34(s0)
80000a9a:	fde45703          	lhu	a4,-34(s0)
80000a9e:	fe845783          	lhu	a5,-24(s0)
80000aa2:	8f1d                	sub	a4,a4,a5
80000aa4:	fd344783          	lbu	a5,-45(s0)
80000aa8:	00f71c63          	bne	a4,a5,80000ac0 <LCD_ShowChinese16x16+0x20a>
80000aac:	fe845783          	lhu	a5,-24(s0)
80000ab0:	fcf41f23          	sh	a5,-34(s0)
80000ab4:	fdc45783          	lhu	a5,-36(s0)
80000ab8:	0785                	addi	a5,a5,1
80000aba:	fcf41e23          	sh	a5,-36(s0)
80000abe:	a819                	j	80000ad4 <LCD_ShowChinese16x16+0x21e>
80000ac0:	fee44783          	lbu	a5,-18(s0)
80000ac4:	0785                	addi	a5,a5,1
80000ac6:	fef40723          	sb	a5,-18(s0)
80000aca:	fee44703          	lbu	a4,-18(s0)
80000ace:	479d                	li	a5,7
80000ad0:	f0e7f9e3          	bgeu	a5,a4,800009e2 <LCD_ShowChinese16x16+0x12c>
80000ad4:	fef44783          	lbu	a5,-17(s0)
80000ad8:	0785                	addi	a5,a5,1
80000ada:	fef407a3          	sb	a5,-17(s0)
80000ade:	fef44783          	lbu	a5,-17(s0)
80000ae2:	07c2                	slli	a5,a5,0x10
80000ae4:	83c1                	srli	a5,a5,0x10
80000ae6:	fe645703          	lhu	a4,-26(s0)
80000aea:	eee7e9e3          	bltu	a5,a4,800009dc <LCD_ShowChinese16x16+0x126>
80000aee:	0001                	nop
80000af0:	fea45783          	lhu	a5,-22(s0)
80000af4:	0785                	addi	a5,a5,1
80000af6:	fef41523          	sh	a5,-22(s0)
80000afa:	fea45703          	lhu	a4,-22(s0)
80000afe:	fe445783          	lhu	a5,-28(s0)
80000b02:	e2f76fe3          	bltu	a4,a5,80000940 <LCD_ShowChinese16x16+0x8a>
80000b06:	0001                	nop
80000b08:	0001                	nop
80000b0a:	50b2                	lw	ra,44(sp)
80000b0c:	5422                	lw	s0,40(sp)
80000b0e:	6145                	addi	sp,sp,48
80000b10:	8082                	ret

80000b12 <LCD_ShowChinese24x24>:
80000b12:	7179                	addi	sp,sp,-48
80000b14:	d606                	sw	ra,44(sp)
80000b16:	d422                	sw	s0,40(sp)
80000b18:	1800                	addi	s0,sp,48
80000b1a:	88aa                	mv	a7,a0
80000b1c:	852e                	mv	a0,a1
80000b1e:	fcc42c23          	sw	a2,-40(s0)
80000b22:	85b6                	mv	a1,a3
80000b24:	863a                	mv	a2,a4
80000b26:	86be                	mv	a3,a5
80000b28:	8742                	mv	a4,a6
80000b2a:	87c6                	mv	a5,a7
80000b2c:	fcf41f23          	sh	a5,-34(s0)
80000b30:	87aa                	mv	a5,a0
80000b32:	fcf41e23          	sh	a5,-36(s0)
80000b36:	87ae                	mv	a5,a1
80000b38:	fcf41b23          	sh	a5,-42(s0)
80000b3c:	87b2                	mv	a5,a2
80000b3e:	fcf41a23          	sh	a5,-44(s0)
80000b42:	87b6                	mv	a5,a3
80000b44:	fcf409a3          	sb	a5,-45(s0)
80000b48:	87ba                	mv	a5,a4
80000b4a:	fcf40923          	sb	a5,-46(s0)
80000b4e:	fe0406a3          	sb	zero,-19(s0)
80000b52:	fde45783          	lhu	a5,-34(s0)
80000b56:	fef41423          	sh	a5,-24(s0)
80000b5a:	fd344783          	lbu	a5,-45(s0)
80000b5e:	838d                	srli	a5,a5,0x3
80000b60:	0ff7f793          	zext.b	a5,a5
80000b64:	873e                	mv	a4,a5
80000b66:	fd344783          	lbu	a5,-45(s0)
80000b6a:	8b9d                	andi	a5,a5,7
80000b6c:	0ff7f793          	zext.b	a5,a5
80000b70:	00f037b3          	snez	a5,a5
80000b74:	0ff7f793          	zext.b	a5,a5
80000b78:	97ba                	add	a5,a5,a4
80000b7a:	01079713          	slli	a4,a5,0x10
80000b7e:	8341                	srli	a4,a4,0x10
80000b80:	fd344783          	lbu	a5,-45(s0)
80000b84:	07c2                	slli	a5,a5,0x10
80000b86:	83c1                	srli	a5,a5,0x10
80000b88:	02f707b3          	mul	a5,a4,a5
80000b8c:	fef41323          	sh	a5,-26(s0)
80000b90:	4795                	li	a5,5
80000b92:	fef41223          	sh	a5,-28(s0)
80000b96:	fe041523          	sh	zero,-22(s0)
80000b9a:	a2f1                	j	80000d66 <LCD_ShowChinese24x24+0x254>
80000b9c:	fea45703          	lhu	a4,-22(s0)
80000ba0:	200007b7          	lui	a5,0x20000
80000ba4:	13878693          	addi	a3,a5,312 # 20000138 <tfont24>
80000ba8:	87ba                	mv	a5,a4
80000baa:	078a                	slli	a5,a5,0x2
80000bac:	97ba                	add	a5,a5,a4
80000bae:	00479713          	slli	a4,a5,0x4
80000bb2:	8f1d                	sub	a4,a4,a5
80000bb4:	00e687b3          	add	a5,a3,a4
80000bb8:	0007c703          	lbu	a4,0(a5)
80000bbc:	fd842783          	lw	a5,-40(s0)
80000bc0:	0007c783          	lbu	a5,0(a5)
80000bc4:	18f71b63          	bne	a4,a5,80000d5a <LCD_ShowChinese24x24+0x248>
80000bc8:	fea45703          	lhu	a4,-22(s0)
80000bcc:	200007b7          	lui	a5,0x20000
80000bd0:	13878693          	addi	a3,a5,312 # 20000138 <tfont24>
80000bd4:	87ba                	mv	a5,a4
80000bd6:	078a                	slli	a5,a5,0x2
80000bd8:	97ba                	add	a5,a5,a4
80000bda:	00479713          	slli	a4,a5,0x4
80000bde:	40f707b3          	sub	a5,a4,a5
80000be2:	97b6                	add	a5,a5,a3
80000be4:	0017c703          	lbu	a4,1(a5)
80000be8:	fd842783          	lw	a5,-40(s0)
80000bec:	0785                	addi	a5,a5,1
80000bee:	0007c783          	lbu	a5,0(a5)
80000bf2:	16f71463          	bne	a4,a5,80000d5a <LCD_ShowChinese24x24+0x248>
80000bf6:	fd344783          	lbu	a5,-45(s0)
80000bfa:	07c2                	slli	a5,a5,0x10
80000bfc:	83c1                	srli	a5,a5,0x10
80000bfe:	fde45703          	lhu	a4,-34(s0)
80000c02:	97ba                	add	a5,a5,a4
80000c04:	07c2                	slli	a5,a5,0x10
80000c06:	83c1                	srli	a5,a5,0x10
80000c08:	17fd                	addi	a5,a5,-1
80000c0a:	01079613          	slli	a2,a5,0x10
80000c0e:	8241                	srli	a2,a2,0x10
80000c10:	fd344783          	lbu	a5,-45(s0)
80000c14:	07c2                	slli	a5,a5,0x10
80000c16:	83c1                	srli	a5,a5,0x10
80000c18:	fdc45703          	lhu	a4,-36(s0)
80000c1c:	97ba                	add	a5,a5,a4
80000c1e:	07c2                	slli	a5,a5,0x10
80000c20:	83c1                	srli	a5,a5,0x10
80000c22:	17fd                	addi	a5,a5,-1
80000c24:	01079693          	slli	a3,a5,0x10
80000c28:	82c1                	srli	a3,a3,0x10
80000c2a:	fdc45703          	lhu	a4,-36(s0)
80000c2e:	fde45783          	lhu	a5,-34(s0)
80000c32:	85ba                	mv	a1,a4
80000c34:	853e                	mv	a0,a5
80000c36:	2b61                	jal	800011ce <LCD_Address_Set>
80000c38:	fe0407a3          	sb	zero,-17(s0)
80000c3c:	a239                	j	80000d4a <LCD_ShowChinese24x24+0x238>
80000c3e:	fe040723          	sb	zero,-18(s0)
80000c42:	a8d5                	j	80000d36 <LCD_ShowChinese24x24+0x224>
80000c44:	fd244783          	lbu	a5,-46(s0)
80000c48:	e7ad                	bnez	a5,80000cb2 <LCD_ShowChinese24x24+0x1a0>
80000c4a:	fea45703          	lhu	a4,-22(s0)
80000c4e:	fef44683          	lbu	a3,-17(s0)
80000c52:	200007b7          	lui	a5,0x20000
80000c56:	13878613          	addi	a2,a5,312 # 20000138 <tfont24>
80000c5a:	87ba                	mv	a5,a4
80000c5c:	078a                	slli	a5,a5,0x2
80000c5e:	97ba                	add	a5,a5,a4
80000c60:	00479713          	slli	a4,a5,0x4
80000c64:	40f707b3          	sub	a5,a4,a5
80000c68:	97b2                	add	a5,a5,a2
80000c6a:	97b6                	add	a5,a5,a3
80000c6c:	0037c783          	lbu	a5,3(a5)
80000c70:	873e                	mv	a4,a5
80000c72:	fee44783          	lbu	a5,-18(s0)
80000c76:	40f757b3          	sra	a5,a4,a5
80000c7a:	8b85                	andi	a5,a5,1
80000c7c:	c791                	beqz	a5,80000c88 <LCD_ShowChinese24x24+0x176>
80000c7e:	fd645783          	lhu	a5,-42(s0)
80000c82:	853e                	mv	a0,a5
80000c84:	21d5                	jal	80001168 <LCD_WR_DATA>
80000c86:	a029                	j	80000c90 <LCD_ShowChinese24x24+0x17e>
80000c88:	fd445783          	lhu	a5,-44(s0)
80000c8c:	853e                	mv	a0,a5
80000c8e:	29e9                	jal	80001168 <LCD_WR_DATA>
80000c90:	fed44783          	lbu	a5,-19(s0)
80000c94:	0785                	addi	a5,a5,1
80000c96:	fef406a3          	sb	a5,-19(s0)
80000c9a:	fed44703          	lbu	a4,-19(s0)
80000c9e:	fd344783          	lbu	a5,-45(s0)
80000ca2:	02f777b3          	remu	a5,a4,a5
80000ca6:	0ff7f793          	zext.b	a5,a5
80000caa:	e3c9                	bnez	a5,80000d2c <LCD_ShowChinese24x24+0x21a>
80000cac:	fe0406a3          	sb	zero,-19(s0)
80000cb0:	a841                	j	80000d40 <LCD_ShowChinese24x24+0x22e>
80000cb2:	fea45703          	lhu	a4,-22(s0)
80000cb6:	fef44683          	lbu	a3,-17(s0)
80000cba:	200007b7          	lui	a5,0x20000
80000cbe:	13878613          	addi	a2,a5,312 # 20000138 <tfont24>
80000cc2:	87ba                	mv	a5,a4
80000cc4:	078a                	slli	a5,a5,0x2
80000cc6:	97ba                	add	a5,a5,a4
80000cc8:	00479713          	slli	a4,a5,0x4
80000ccc:	40f707b3          	sub	a5,a4,a5
80000cd0:	97b2                	add	a5,a5,a2
80000cd2:	97b6                	add	a5,a5,a3
80000cd4:	0037c783          	lbu	a5,3(a5)
80000cd8:	873e                	mv	a4,a5
80000cda:	fee44783          	lbu	a5,-18(s0)
80000cde:	40f757b3          	sra	a5,a4,a5
80000ce2:	8b85                	andi	a5,a5,1
80000ce4:	cf81                	beqz	a5,80000cfc <LCD_ShowChinese24x24+0x1ea>
80000ce6:	fd645683          	lhu	a3,-42(s0)
80000cea:	fdc45703          	lhu	a4,-36(s0)
80000cee:	fde45783          	lhu	a5,-34(s0)
80000cf2:	8636                	mv	a2,a3
80000cf4:	85ba                	mv	a1,a4
80000cf6:	853e                	mv	a0,a5
80000cf8:	ff4ff0ef          	jal	ra,800004ec <LCD_DrawPoint>
80000cfc:	fde45783          	lhu	a5,-34(s0)
80000d00:	0785                	addi	a5,a5,1
80000d02:	fcf41f23          	sh	a5,-34(s0)
80000d06:	fde45703          	lhu	a4,-34(s0)
80000d0a:	fe845783          	lhu	a5,-24(s0)
80000d0e:	8f1d                	sub	a4,a4,a5
80000d10:	fd344783          	lbu	a5,-45(s0)
80000d14:	00f71c63          	bne	a4,a5,80000d2c <LCD_ShowChinese24x24+0x21a>
80000d18:	fe845783          	lhu	a5,-24(s0)
80000d1c:	fcf41f23          	sh	a5,-34(s0)
80000d20:	fdc45783          	lhu	a5,-36(s0)
80000d24:	0785                	addi	a5,a5,1
80000d26:	fcf41e23          	sh	a5,-36(s0)
80000d2a:	a819                	j	80000d40 <LCD_ShowChinese24x24+0x22e>
80000d2c:	fee44783          	lbu	a5,-18(s0)
80000d30:	0785                	addi	a5,a5,1
80000d32:	fef40723          	sb	a5,-18(s0)
80000d36:	fee44703          	lbu	a4,-18(s0)
80000d3a:	479d                	li	a5,7
80000d3c:	f0e7f4e3          	bgeu	a5,a4,80000c44 <LCD_ShowChinese24x24+0x132>
80000d40:	fef44783          	lbu	a5,-17(s0)
80000d44:	0785                	addi	a5,a5,1
80000d46:	fef407a3          	sb	a5,-17(s0)
80000d4a:	fef44783          	lbu	a5,-17(s0)
80000d4e:	07c2                	slli	a5,a5,0x10
80000d50:	83c1                	srli	a5,a5,0x10
80000d52:	fe645703          	lhu	a4,-26(s0)
80000d56:	eee7e4e3          	bltu	a5,a4,80000c3e <LCD_ShowChinese24x24+0x12c>
80000d5a:	0001                	nop
80000d5c:	fea45783          	lhu	a5,-22(s0)
80000d60:	0785                	addi	a5,a5,1
80000d62:	fef41523          	sh	a5,-22(s0)
80000d66:	fea45703          	lhu	a4,-22(s0)
80000d6a:	fe445783          	lhu	a5,-28(s0)
80000d6e:	e2f767e3          	bltu	a4,a5,80000b9c <LCD_ShowChinese24x24+0x8a>
80000d72:	0001                	nop
80000d74:	0001                	nop
80000d76:	50b2                	lw	ra,44(sp)
80000d78:	5422                	lw	s0,40(sp)
80000d7a:	6145                	addi	sp,sp,48
80000d7c:	8082                	ret

80000d7e <LCD_ShowChinese32x32>:
80000d7e:	7179                	addi	sp,sp,-48
80000d80:	d606                	sw	ra,44(sp)
80000d82:	d422                	sw	s0,40(sp)
80000d84:	1800                	addi	s0,sp,48
80000d86:	88aa                	mv	a7,a0
80000d88:	852e                	mv	a0,a1
80000d8a:	fcc42c23          	sw	a2,-40(s0)
80000d8e:	85b6                	mv	a1,a3
80000d90:	863a                	mv	a2,a4
80000d92:	86be                	mv	a3,a5
80000d94:	8742                	mv	a4,a6
80000d96:	87c6                	mv	a5,a7
80000d98:	fcf41f23          	sh	a5,-34(s0)
80000d9c:	87aa                	mv	a5,a0
80000d9e:	fcf41e23          	sh	a5,-36(s0)
80000da2:	87ae                	mv	a5,a1
80000da4:	fcf41b23          	sh	a5,-42(s0)
80000da8:	87b2                	mv	a5,a2
80000daa:	fcf41a23          	sh	a5,-44(s0)
80000dae:	87b6                	mv	a5,a3
80000db0:	fcf409a3          	sb	a5,-45(s0)
80000db4:	87ba                	mv	a5,a4
80000db6:	fcf40923          	sb	a5,-46(s0)
80000dba:	fe0406a3          	sb	zero,-19(s0)
80000dbe:	fde45783          	lhu	a5,-34(s0)
80000dc2:	fef41423          	sh	a5,-24(s0)
80000dc6:	fd344783          	lbu	a5,-45(s0)
80000dca:	838d                	srli	a5,a5,0x3
80000dcc:	0ff7f793          	zext.b	a5,a5
80000dd0:	873e                	mv	a4,a5
80000dd2:	fd344783          	lbu	a5,-45(s0)
80000dd6:	8b9d                	andi	a5,a5,7
80000dd8:	0ff7f793          	zext.b	a5,a5
80000ddc:	00f037b3          	snez	a5,a5
80000de0:	0ff7f793          	zext.b	a5,a5
80000de4:	97ba                	add	a5,a5,a4
80000de6:	01079713          	slli	a4,a5,0x10
80000dea:	8341                	srli	a4,a4,0x10
80000dec:	fd344783          	lbu	a5,-45(s0)
80000df0:	07c2                	slli	a5,a5,0x10
80000df2:	83c1                	srli	a5,a5,0x10
80000df4:	02f707b3          	mul	a5,a4,a5
80000df8:	fef41323          	sh	a5,-26(s0)
80000dfc:	4795                	li	a5,5
80000dfe:	fef41223          	sh	a5,-28(s0)
80000e02:	fe041523          	sh	zero,-22(s0)
80000e06:	aa75                	j	80000fc2 <LCD_ShowChinese32x32+0x244>
80000e08:	fea45703          	lhu	a4,-22(s0)
80000e0c:	200007b7          	lui	a5,0x20000
80000e10:	2b078693          	addi	a3,a5,688 # 200002b0 <tfont32>
80000e14:	87ba                	mv	a5,a4
80000e16:	0796                	slli	a5,a5,0x5
80000e18:	97ba                	add	a5,a5,a4
80000e1a:	078a                	slli	a5,a5,0x2
80000e1c:	8f99                	sub	a5,a5,a4
80000e1e:	97b6                	add	a5,a5,a3
80000e20:	0007c703          	lbu	a4,0(a5)
80000e24:	fd842783          	lw	a5,-40(s0)
80000e28:	0007c783          	lbu	a5,0(a5)
80000e2c:	18f71563          	bne	a4,a5,80000fb6 <LCD_ShowChinese32x32+0x238>
80000e30:	fea45703          	lhu	a4,-22(s0)
80000e34:	200007b7          	lui	a5,0x20000
80000e38:	2b078693          	addi	a3,a5,688 # 200002b0 <tfont32>
80000e3c:	87ba                	mv	a5,a4
80000e3e:	0796                	slli	a5,a5,0x5
80000e40:	97ba                	add	a5,a5,a4
80000e42:	078a                	slli	a5,a5,0x2
80000e44:	8f99                	sub	a5,a5,a4
80000e46:	97b6                	add	a5,a5,a3
80000e48:	0017c703          	lbu	a4,1(a5)
80000e4c:	fd842783          	lw	a5,-40(s0)
80000e50:	0785                	addi	a5,a5,1
80000e52:	0007c783          	lbu	a5,0(a5)
80000e56:	16f71063          	bne	a4,a5,80000fb6 <LCD_ShowChinese32x32+0x238>
80000e5a:	fd344783          	lbu	a5,-45(s0)
80000e5e:	07c2                	slli	a5,a5,0x10
80000e60:	83c1                	srli	a5,a5,0x10
80000e62:	fde45703          	lhu	a4,-34(s0)
80000e66:	97ba                	add	a5,a5,a4
80000e68:	07c2                	slli	a5,a5,0x10
80000e6a:	83c1                	srli	a5,a5,0x10
80000e6c:	17fd                	addi	a5,a5,-1
80000e6e:	01079613          	slli	a2,a5,0x10
80000e72:	8241                	srli	a2,a2,0x10
80000e74:	fd344783          	lbu	a5,-45(s0)
80000e78:	07c2                	slli	a5,a5,0x10
80000e7a:	83c1                	srli	a5,a5,0x10
80000e7c:	fdc45703          	lhu	a4,-36(s0)
80000e80:	97ba                	add	a5,a5,a4
80000e82:	07c2                	slli	a5,a5,0x10
80000e84:	83c1                	srli	a5,a5,0x10
80000e86:	17fd                	addi	a5,a5,-1
80000e88:	01079693          	slli	a3,a5,0x10
80000e8c:	82c1                	srli	a3,a3,0x10
80000e8e:	fdc45703          	lhu	a4,-36(s0)
80000e92:	fde45783          	lhu	a5,-34(s0)
80000e96:	85ba                	mv	a1,a4
80000e98:	853e                	mv	a0,a5
80000e9a:	2e15                	jal	800011ce <LCD_Address_Set>
80000e9c:	fe0407a3          	sb	zero,-17(s0)
80000ea0:	a219                	j	80000fa6 <LCD_ShowChinese32x32+0x228>
80000ea2:	fe040723          	sb	zero,-18(s0)
80000ea6:	a0f5                	j	80000f92 <LCD_ShowChinese32x32+0x214>
80000ea8:	fd244783          	lbu	a5,-46(s0)
80000eac:	e3bd                	bnez	a5,80000f12 <LCD_ShowChinese32x32+0x194>
80000eae:	fea45703          	lhu	a4,-22(s0)
80000eb2:	fef44683          	lbu	a3,-17(s0)
80000eb6:	200007b7          	lui	a5,0x20000
80000eba:	2b078613          	addi	a2,a5,688 # 200002b0 <tfont32>
80000ebe:	87ba                	mv	a5,a4
80000ec0:	0796                	slli	a5,a5,0x5
80000ec2:	97ba                	add	a5,a5,a4
80000ec4:	078a                	slli	a5,a5,0x2
80000ec6:	8f99                	sub	a5,a5,a4
80000ec8:	97b2                	add	a5,a5,a2
80000eca:	97b6                	add	a5,a5,a3
80000ecc:	0037c783          	lbu	a5,3(a5)
80000ed0:	873e                	mv	a4,a5
80000ed2:	fee44783          	lbu	a5,-18(s0)
80000ed6:	40f757b3          	sra	a5,a4,a5
80000eda:	8b85                	andi	a5,a5,1
80000edc:	c791                	beqz	a5,80000ee8 <LCD_ShowChinese32x32+0x16a>
80000ede:	fd645783          	lhu	a5,-42(s0)
80000ee2:	853e                	mv	a0,a5
80000ee4:	2451                	jal	80001168 <LCD_WR_DATA>
80000ee6:	a029                	j	80000ef0 <LCD_ShowChinese32x32+0x172>
80000ee8:	fd445783          	lhu	a5,-44(s0)
80000eec:	853e                	mv	a0,a5
80000eee:	2cad                	jal	80001168 <LCD_WR_DATA>
80000ef0:	fed44783          	lbu	a5,-19(s0)
80000ef4:	0785                	addi	a5,a5,1
80000ef6:	fef406a3          	sb	a5,-19(s0)
80000efa:	fed44703          	lbu	a4,-19(s0)
80000efe:	fd344783          	lbu	a5,-45(s0)
80000f02:	02f777b3          	remu	a5,a4,a5
80000f06:	0ff7f793          	zext.b	a5,a5
80000f0a:	efbd                	bnez	a5,80000f88 <LCD_ShowChinese32x32+0x20a>
80000f0c:	fe0406a3          	sb	zero,-19(s0)
80000f10:	a071                	j	80000f9c <LCD_ShowChinese32x32+0x21e>
80000f12:	fea45703          	lhu	a4,-22(s0)
80000f16:	fef44683          	lbu	a3,-17(s0)
80000f1a:	200007b7          	lui	a5,0x20000
80000f1e:	2b078613          	addi	a2,a5,688 # 200002b0 <tfont32>
80000f22:	87ba                	mv	a5,a4
80000f24:	0796                	slli	a5,a5,0x5
80000f26:	97ba                	add	a5,a5,a4
80000f28:	078a                	slli	a5,a5,0x2
80000f2a:	8f99                	sub	a5,a5,a4
80000f2c:	97b2                	add	a5,a5,a2
80000f2e:	97b6                	add	a5,a5,a3
80000f30:	0037c783          	lbu	a5,3(a5)
80000f34:	873e                	mv	a4,a5
80000f36:	fee44783          	lbu	a5,-18(s0)
80000f3a:	40f757b3          	sra	a5,a4,a5
80000f3e:	8b85                	andi	a5,a5,1
80000f40:	cf81                	beqz	a5,80000f58 <LCD_ShowChinese32x32+0x1da>
80000f42:	fd645683          	lhu	a3,-42(s0)
80000f46:	fdc45703          	lhu	a4,-36(s0)
80000f4a:	fde45783          	lhu	a5,-34(s0)
80000f4e:	8636                	mv	a2,a3
80000f50:	85ba                	mv	a1,a4
80000f52:	853e                	mv	a0,a5
80000f54:	d98ff0ef          	jal	ra,800004ec <LCD_DrawPoint>
80000f58:	fde45783          	lhu	a5,-34(s0)
80000f5c:	0785                	addi	a5,a5,1
80000f5e:	fcf41f23          	sh	a5,-34(s0)
80000f62:	fde45703          	lhu	a4,-34(s0)
80000f66:	fe845783          	lhu	a5,-24(s0)
80000f6a:	8f1d                	sub	a4,a4,a5
80000f6c:	fd344783          	lbu	a5,-45(s0)
80000f70:	00f71c63          	bne	a4,a5,80000f88 <LCD_ShowChinese32x32+0x20a>
80000f74:	fe845783          	lhu	a5,-24(s0)
80000f78:	fcf41f23          	sh	a5,-34(s0)
80000f7c:	fdc45783          	lhu	a5,-36(s0)
80000f80:	0785                	addi	a5,a5,1
80000f82:	fcf41e23          	sh	a5,-36(s0)
80000f86:	a819                	j	80000f9c <LCD_ShowChinese32x32+0x21e>
80000f88:	fee44783          	lbu	a5,-18(s0)
80000f8c:	0785                	addi	a5,a5,1
80000f8e:	fef40723          	sb	a5,-18(s0)
80000f92:	fee44703          	lbu	a4,-18(s0)
80000f96:	479d                	li	a5,7
80000f98:	f0e7f8e3          	bgeu	a5,a4,80000ea8 <LCD_ShowChinese32x32+0x12a>
80000f9c:	fef44783          	lbu	a5,-17(s0)
80000fa0:	0785                	addi	a5,a5,1
80000fa2:	fef407a3          	sb	a5,-17(s0)
80000fa6:	fef44783          	lbu	a5,-17(s0)
80000faa:	07c2                	slli	a5,a5,0x10
80000fac:	83c1                	srli	a5,a5,0x10
80000fae:	fe645703          	lhu	a4,-26(s0)
80000fb2:	eee7e8e3          	bltu	a5,a4,80000ea2 <LCD_ShowChinese32x32+0x124>
80000fb6:	0001                	nop
80000fb8:	fea45783          	lhu	a5,-22(s0)
80000fbc:	0785                	addi	a5,a5,1
80000fbe:	fef41523          	sh	a5,-22(s0)
80000fc2:	fea45703          	lhu	a4,-22(s0)
80000fc6:	fe445783          	lhu	a5,-28(s0)
80000fca:	e2f76fe3          	bltu	a4,a5,80000e08 <LCD_ShowChinese32x32+0x8a>
80000fce:	0001                	nop
80000fd0:	0001                	nop
80000fd2:	50b2                	lw	ra,44(sp)
80000fd4:	5422                	lw	s0,40(sp)
80000fd6:	6145                	addi	sp,sp,48
80000fd8:	8082                	ret

80000fda <UTIL_IdleMs>:
80000fda:	1101                	addi	sp,sp,-32
80000fdc:	ce06                	sw	ra,28(sp)
80000fde:	cc22                	sw	s0,24(sp)
80000fe0:	1000                	addi	s0,sp,32
80000fe2:	fea42623          	sw	a0,-20(s0)
80000fe6:	fec42703          	lw	a4,-20(s0)
80000fea:	3e800793          	li	a5,1000
80000fee:	02f707b3          	mul	a5,a4,a5
80000ff2:	853e                	mv	a0,a5
80000ff4:	620010ef          	jal	ra,80002614 <UTIL_IdleUs>
80000ff8:	0001                	nop
80000ffa:	40f2                	lw	ra,28(sp)
80000ffc:	4462                	lw	s0,24(sp)
80000ffe:	6105                	addi	sp,sp,32
80001000:	8082                	ret

80001002 <SYS_EnableAPBClock>:
80001002:	1101                	addi	sp,sp,-32
80001004:	ce22                	sw	s0,28(sp)
80001006:	1000                	addi	s0,sp,32
80001008:	fea42623          	sw	a0,-20(s0)
8000100c:	030007b7          	lui	a5,0x3000
80001010:	53b4                	lw	a3,96(a5)
80001012:	030007b7          	lui	a5,0x3000
80001016:	fec42703          	lw	a4,-20(s0)
8000101a:	8f55                	or	a4,a4,a3
8000101c:	d3b8                	sw	a4,96(a5)
8000101e:	0001                	nop
80001020:	4472                	lw	s0,28(sp)
80001022:	6105                	addi	sp,sp,32
80001024:	8082                	ret

80001026 <GPIO_SetOutput>:
80001026:	1101                	addi	sp,sp,-32
80001028:	ce22                	sw	s0,28(sp)
8000102a:	1000                	addi	s0,sp,32
8000102c:	fea42623          	sw	a0,-20(s0)
80001030:	87ae                	mv	a5,a1
80001032:	fef405a3          	sb	a5,-21(s0)
80001036:	fec42783          	lw	a5,-20(s0)
8000103a:	4007a703          	lw	a4,1024(a5) # 3000400 <FLASH_SIZE+0x2000400>
8000103e:	feb44783          	lbu	a5,-21(s0)
80001042:	8f5d                	or	a4,a4,a5
80001044:	fec42783          	lw	a5,-20(s0)
80001048:	40e7a023          	sw	a4,1024(a5)
8000104c:	0001                	nop
8000104e:	4472                	lw	s0,28(sp)
80001050:	6105                	addi	sp,sp,32
80001052:	8082                	ret

80001054 <GPIO_SetHigh>:
80001054:	1101                	addi	sp,sp,-32
80001056:	ce22                	sw	s0,28(sp)
80001058:	1000                	addi	s0,sp,32
8000105a:	fea42623          	sw	a0,-20(s0)
8000105e:	87ae                	mv	a5,a1
80001060:	fef405a3          	sb	a5,-21(s0)
80001064:	feb44783          	lbu	a5,-21(s0)
80001068:	fec42703          	lw	a4,-20(s0)
8000106c:	078a                	slli	a5,a5,0x2
8000106e:	97ba                	add	a5,a5,a4
80001070:	0ff00713          	li	a4,255
80001074:	c398                	sw	a4,0(a5)
80001076:	0001                	nop
80001078:	4472                	lw	s0,28(sp)
8000107a:	6105                	addi	sp,sp,32
8000107c:	8082                	ret

8000107e <GPIO_SetLow>:
8000107e:	1101                	addi	sp,sp,-32
80001080:	ce22                	sw	s0,28(sp)
80001082:	1000                	addi	s0,sp,32
80001084:	fea42623          	sw	a0,-20(s0)
80001088:	87ae                	mv	a5,a1
8000108a:	fef405a3          	sb	a5,-21(s0)
8000108e:	feb44783          	lbu	a5,-21(s0)
80001092:	fec42703          	lw	a4,-20(s0)
80001096:	078a                	slli	a5,a5,0x2
80001098:	97ba                	add	a5,a5,a4
8000109a:	0007a023          	sw	zero,0(a5)
8000109e:	0001                	nop
800010a0:	4472                	lw	s0,28(sp)
800010a2:	6105                	addi	sp,sp,32
800010a4:	8082                	ret

800010a6 <LCD_GPIO_Init>:
800010a6:	1141                	addi	sp,sp,-16
800010a8:	c606                	sw	ra,12(sp)
800010aa:	c422                	sw	s0,8(sp)
800010ac:	0800                	addi	s0,sp,16
800010ae:	10000513          	li	a0,256
800010b2:	3f81                	jal	80001002 <SYS_EnableAPBClock>
800010b4:	03f00593          	li	a1,63
800010b8:	40018537          	lui	a0,0x40018
800010bc:	37ad                	jal	80001026 <GPIO_SetOutput>
800010be:	03f00593          	li	a1,63
800010c2:	40018537          	lui	a0,0x40018
800010c6:	3779                	jal	80001054 <GPIO_SetHigh>
800010c8:	0001                	nop
800010ca:	40b2                	lw	ra,12(sp)
800010cc:	4422                	lw	s0,8(sp)
800010ce:	0141                	addi	sp,sp,16
800010d0:	8082                	ret

800010d2 <LCD_Writ_Bus>:
800010d2:	7179                	addi	sp,sp,-48
800010d4:	d606                	sw	ra,44(sp)
800010d6:	d422                	sw	s0,40(sp)
800010d8:	1800                	addi	s0,sp,48
800010da:	87aa                	mv	a5,a0
800010dc:	fcf40fa3          	sb	a5,-33(s0)
800010e0:	45c1                	li	a1,16
800010e2:	40018537          	lui	a0,0x40018
800010e6:	3f61                	jal	8000107e <GPIO_SetLow>
800010e8:	fe0407a3          	sb	zero,-17(s0)
800010ec:	a081                	j	8000112c <LCD_Writ_Bus+0x5a>
800010ee:	4585                	li	a1,1
800010f0:	40018537          	lui	a0,0x40018
800010f4:	3769                	jal	8000107e <GPIO_SetLow>
800010f6:	fdf40783          	lb	a5,-33(s0)
800010fa:	0007d763          	bgez	a5,80001108 <LCD_Writ_Bus+0x36>
800010fe:	4589                	li	a1,2
80001100:	40018537          	lui	a0,0x40018
80001104:	3f81                	jal	80001054 <GPIO_SetHigh>
80001106:	a029                	j	80001110 <LCD_Writ_Bus+0x3e>
80001108:	4589                	li	a1,2
8000110a:	40018537          	lui	a0,0x40018
8000110e:	3f85                	jal	8000107e <GPIO_SetLow>
80001110:	4585                	li	a1,1
80001112:	40018537          	lui	a0,0x40018
80001116:	3f3d                	jal	80001054 <GPIO_SetHigh>
80001118:	fdf44783          	lbu	a5,-33(s0)
8000111c:	0786                	slli	a5,a5,0x1
8000111e:	fcf40fa3          	sb	a5,-33(s0)
80001122:	fef44783          	lbu	a5,-17(s0)
80001126:	0785                	addi	a5,a5,1
80001128:	fef407a3          	sb	a5,-17(s0)
8000112c:	fef44703          	lbu	a4,-17(s0)
80001130:	479d                	li	a5,7
80001132:	fae7fee3          	bgeu	a5,a4,800010ee <LCD_Writ_Bus+0x1c>
80001136:	45c1                	li	a1,16
80001138:	40018537          	lui	a0,0x40018
8000113c:	3f21                	jal	80001054 <GPIO_SetHigh>
8000113e:	0001                	nop
80001140:	50b2                	lw	ra,44(sp)
80001142:	5422                	lw	s0,40(sp)
80001144:	6145                	addi	sp,sp,48
80001146:	8082                	ret

80001148 <LCD_WR_DATA8>:
80001148:	1101                	addi	sp,sp,-32
8000114a:	ce06                	sw	ra,28(sp)
8000114c:	cc22                	sw	s0,24(sp)
8000114e:	1000                	addi	s0,sp,32
80001150:	87aa                	mv	a5,a0
80001152:	fef407a3          	sb	a5,-17(s0)
80001156:	fef44783          	lbu	a5,-17(s0)
8000115a:	853e                	mv	a0,a5
8000115c:	3f9d                	jal	800010d2 <LCD_Writ_Bus>
8000115e:	0001                	nop
80001160:	40f2                	lw	ra,28(sp)
80001162:	4462                	lw	s0,24(sp)
80001164:	6105                	addi	sp,sp,32
80001166:	8082                	ret

80001168 <LCD_WR_DATA>:
80001168:	1101                	addi	sp,sp,-32
8000116a:	ce06                	sw	ra,28(sp)
8000116c:	cc22                	sw	s0,24(sp)
8000116e:	1000                	addi	s0,sp,32
80001170:	87aa                	mv	a5,a0
80001172:	fef41723          	sh	a5,-18(s0)
80001176:	fee45783          	lhu	a5,-18(s0)
8000117a:	83a1                	srli	a5,a5,0x8
8000117c:	07c2                	slli	a5,a5,0x10
8000117e:	83c1                	srli	a5,a5,0x10
80001180:	0ff7f793          	zext.b	a5,a5
80001184:	853e                	mv	a0,a5
80001186:	37b1                	jal	800010d2 <LCD_Writ_Bus>
80001188:	fee45783          	lhu	a5,-18(s0)
8000118c:	0ff7f793          	zext.b	a5,a5
80001190:	853e                	mv	a0,a5
80001192:	3781                	jal	800010d2 <LCD_Writ_Bus>
80001194:	0001                	nop
80001196:	40f2                	lw	ra,28(sp)
80001198:	4462                	lw	s0,24(sp)
8000119a:	6105                	addi	sp,sp,32
8000119c:	8082                	ret

8000119e <LCD_WR_REG>:
8000119e:	1101                	addi	sp,sp,-32
800011a0:	ce06                	sw	ra,28(sp)
800011a2:	cc22                	sw	s0,24(sp)
800011a4:	1000                	addi	s0,sp,32
800011a6:	87aa                	mv	a5,a0
800011a8:	fef407a3          	sb	a5,-17(s0)
800011ac:	45a1                	li	a1,8
800011ae:	40018537          	lui	a0,0x40018
800011b2:	35f1                	jal	8000107e <GPIO_SetLow>
800011b4:	fef44783          	lbu	a5,-17(s0)
800011b8:	853e                	mv	a0,a5
800011ba:	3f21                	jal	800010d2 <LCD_Writ_Bus>
800011bc:	45a1                	li	a1,8
800011be:	40018537          	lui	a0,0x40018
800011c2:	3d49                	jal	80001054 <GPIO_SetHigh>
800011c4:	0001                	nop
800011c6:	40f2                	lw	ra,28(sp)
800011c8:	4462                	lw	s0,24(sp)
800011ca:	6105                	addi	sp,sp,32
800011cc:	8082                	ret

800011ce <LCD_Address_Set>:
800011ce:	1101                	addi	sp,sp,-32
800011d0:	ce06                	sw	ra,28(sp)
800011d2:	cc22                	sw	s0,24(sp)
800011d4:	1000                	addi	s0,sp,32
800011d6:	87aa                	mv	a5,a0
800011d8:	8736                	mv	a4,a3
800011da:	fef41723          	sh	a5,-18(s0)
800011de:	87ae                	mv	a5,a1
800011e0:	fef41623          	sh	a5,-20(s0)
800011e4:	87b2                	mv	a5,a2
800011e6:	fef41523          	sh	a5,-22(s0)
800011ea:	87ba                	mv	a5,a4
800011ec:	fef41423          	sh	a5,-24(s0)
800011f0:	02a00513          	li	a0,42
800011f4:	376d                	jal	8000119e <LCD_WR_REG>
800011f6:	fee45783          	lhu	a5,-18(s0)
800011fa:	853e                	mv	a0,a5
800011fc:	37b5                	jal	80001168 <LCD_WR_DATA>
800011fe:	fea45783          	lhu	a5,-22(s0)
80001202:	853e                	mv	a0,a5
80001204:	3795                	jal	80001168 <LCD_WR_DATA>
80001206:	02b00513          	li	a0,43
8000120a:	3f51                	jal	8000119e <LCD_WR_REG>
8000120c:	fec45783          	lhu	a5,-20(s0)
80001210:	853e                	mv	a0,a5
80001212:	3f99                	jal	80001168 <LCD_WR_DATA>
80001214:	fe845783          	lhu	a5,-24(s0)
80001218:	853e                	mv	a0,a5
8000121a:	37b9                	jal	80001168 <LCD_WR_DATA>
8000121c:	02c00513          	li	a0,44
80001220:	3fbd                	jal	8000119e <LCD_WR_REG>
80001222:	0001                	nop
80001224:	40f2                	lw	ra,28(sp)
80001226:	4462                	lw	s0,24(sp)
80001228:	6105                	addi	sp,sp,32
8000122a:	8082                	ret

8000122c <LCD_Init>:
8000122c:	1141                	addi	sp,sp,-16
8000122e:	c606                	sw	ra,12(sp)
80001230:	c422                	sw	s0,8(sp)
80001232:	0800                	addi	s0,sp,16
80001234:	3d8d                	jal	800010a6 <LCD_GPIO_Init>
80001236:	4591                	li	a1,4
80001238:	40018537          	lui	a0,0x40018
8000123c:	3589                	jal	8000107e <GPIO_SetLow>
8000123e:	06400513          	li	a0,100
80001242:	3b61                	jal	80000fda <UTIL_IdleMs>
80001244:	4591                	li	a1,4
80001246:	40018537          	lui	a0,0x40018
8000124a:	3529                	jal	80001054 <GPIO_SetHigh>
8000124c:	06400513          	li	a0,100
80001250:	3369                	jal	80000fda <UTIL_IdleMs>
80001252:	02000593          	li	a1,32
80001256:	40018537          	lui	a0,0x40018
8000125a:	3bed                	jal	80001054 <GPIO_SetHigh>
8000125c:	06400513          	li	a0,100
80001260:	3bad                	jal	80000fda <UTIL_IdleMs>
80001262:	4545                	li	a0,17
80001264:	3f2d                	jal	8000119e <LCD_WR_REG>
80001266:	07800513          	li	a0,120
8000126a:	3b85                	jal	80000fda <UTIL_IdleMs>
8000126c:	0b100513          	li	a0,177
80001270:	373d                	jal	8000119e <LCD_WR_REG>
80001272:	4515                	li	a0,5
80001274:	3dd1                	jal	80001148 <LCD_WR_DATA8>
80001276:	03c00513          	li	a0,60
8000127a:	35f9                	jal	80001148 <LCD_WR_DATA8>
8000127c:	03c00513          	li	a0,60
80001280:	35e1                	jal	80001148 <LCD_WR_DATA8>
80001282:	0b200513          	li	a0,178
80001286:	3f21                	jal	8000119e <LCD_WR_REG>
80001288:	4515                	li	a0,5
8000128a:	3d7d                	jal	80001148 <LCD_WR_DATA8>
8000128c:	03c00513          	li	a0,60
80001290:	3d65                	jal	80001148 <LCD_WR_DATA8>
80001292:	03c00513          	li	a0,60
80001296:	3d4d                	jal	80001148 <LCD_WR_DATA8>
80001298:	0b300513          	li	a0,179
8000129c:	3709                	jal	8000119e <LCD_WR_REG>
8000129e:	4515                	li	a0,5
800012a0:	3565                	jal	80001148 <LCD_WR_DATA8>
800012a2:	03c00513          	li	a0,60
800012a6:	354d                	jal	80001148 <LCD_WR_DATA8>
800012a8:	03c00513          	li	a0,60
800012ac:	3d71                	jal	80001148 <LCD_WR_DATA8>
800012ae:	4515                	li	a0,5
800012b0:	3d61                	jal	80001148 <LCD_WR_DATA8>
800012b2:	03c00513          	li	a0,60
800012b6:	3d49                	jal	80001148 <LCD_WR_DATA8>
800012b8:	03c00513          	li	a0,60
800012bc:	3571                	jal	80001148 <LCD_WR_DATA8>
800012be:	0b400513          	li	a0,180
800012c2:	3df1                	jal	8000119e <LCD_WR_REG>
800012c4:	450d                	li	a0,3
800012c6:	3549                	jal	80001148 <LCD_WR_DATA8>
800012c8:	0c000513          	li	a0,192
800012cc:	3dc9                	jal	8000119e <LCD_WR_REG>
800012ce:	02800513          	li	a0,40
800012d2:	3d9d                	jal	80001148 <LCD_WR_DATA8>
800012d4:	4521                	li	a0,8
800012d6:	3d8d                	jal	80001148 <LCD_WR_DATA8>
800012d8:	4511                	li	a0,4
800012da:	35bd                	jal	80001148 <LCD_WR_DATA8>
800012dc:	0c100513          	li	a0,193
800012e0:	3d7d                	jal	8000119e <LCD_WR_REG>
800012e2:	0c000513          	li	a0,192
800012e6:	358d                	jal	80001148 <LCD_WR_DATA8>
800012e8:	0c200513          	li	a0,194
800012ec:	3d4d                	jal	8000119e <LCD_WR_REG>
800012ee:	4535                	li	a0,13
800012f0:	3da1                	jal	80001148 <LCD_WR_DATA8>
800012f2:	4501                	li	a0,0
800012f4:	3d91                	jal	80001148 <LCD_WR_DATA8>
800012f6:	0c300513          	li	a0,195
800012fa:	3555                	jal	8000119e <LCD_WR_REG>
800012fc:	08d00513          	li	a0,141
80001300:	35a1                	jal	80001148 <LCD_WR_DATA8>
80001302:	02a00513          	li	a0,42
80001306:	3589                	jal	80001148 <LCD_WR_DATA8>
80001308:	0c400513          	li	a0,196
8000130c:	3d49                	jal	8000119e <LCD_WR_REG>
8000130e:	08d00513          	li	a0,141
80001312:	3d1d                	jal	80001148 <LCD_WR_DATA8>
80001314:	0ee00513          	li	a0,238
80001318:	3d05                	jal	80001148 <LCD_WR_DATA8>
8000131a:	0c500513          	li	a0,197
8000131e:	3541                	jal	8000119e <LCD_WR_REG>
80001320:	4569                	li	a0,26
80001322:	351d                	jal	80001148 <LCD_WR_DATA8>
80001324:	03600513          	li	a0,54
80001328:	3d9d                	jal	8000119e <LCD_WR_REG>
8000132a:	0c000513          	li	a0,192
8000132e:	3d29                	jal	80001148 <LCD_WR_DATA8>
80001330:	0e000513          	li	a0,224
80001334:	35ad                	jal	8000119e <LCD_WR_REG>
80001336:	4511                	li	a0,4
80001338:	3d01                	jal	80001148 <LCD_WR_DATA8>
8000133a:	02200513          	li	a0,34
8000133e:	3529                	jal	80001148 <LCD_WR_DATA8>
80001340:	451d                	li	a0,7
80001342:	3519                	jal	80001148 <LCD_WR_DATA8>
80001344:	4529                	li	a0,10
80001346:	3509                	jal	80001148 <LCD_WR_DATA8>
80001348:	02e00513          	li	a0,46
8000134c:	3bf5                	jal	80001148 <LCD_WR_DATA8>
8000134e:	03000513          	li	a0,48
80001352:	3bdd                	jal	80001148 <LCD_WR_DATA8>
80001354:	02500513          	li	a0,37
80001358:	3bc5                	jal	80001148 <LCD_WR_DATA8>
8000135a:	02a00513          	li	a0,42
8000135e:	33ed                	jal	80001148 <LCD_WR_DATA8>
80001360:	02800513          	li	a0,40
80001364:	33d5                	jal	80001148 <LCD_WR_DATA8>
80001366:	02600513          	li	a0,38
8000136a:	3bf9                	jal	80001148 <LCD_WR_DATA8>
8000136c:	02e00513          	li	a0,46
80001370:	3be1                	jal	80001148 <LCD_WR_DATA8>
80001372:	03a00513          	li	a0,58
80001376:	3bc9                	jal	80001148 <LCD_WR_DATA8>
80001378:	4501                	li	a0,0
8000137a:	33f9                	jal	80001148 <LCD_WR_DATA8>
8000137c:	4505                	li	a0,1
8000137e:	33e9                	jal	80001148 <LCD_WR_DATA8>
80001380:	450d                	li	a0,3
80001382:	33d9                	jal	80001148 <LCD_WR_DATA8>
80001384:	454d                	li	a0,19
80001386:	33c9                	jal	80001148 <LCD_WR_DATA8>
80001388:	0e100513          	li	a0,225
8000138c:	3d09                	jal	8000119e <LCD_WR_REG>
8000138e:	4511                	li	a0,4
80001390:	3b65                	jal	80001148 <LCD_WR_DATA8>
80001392:	4559                	li	a0,22
80001394:	3b55                	jal	80001148 <LCD_WR_DATA8>
80001396:	4519                	li	a0,6
80001398:	3b45                	jal	80001148 <LCD_WR_DATA8>
8000139a:	4535                	li	a0,13
8000139c:	3375                	jal	80001148 <LCD_WR_DATA8>
8000139e:	02d00513          	li	a0,45
800013a2:	335d                	jal	80001148 <LCD_WR_DATA8>
800013a4:	02600513          	li	a0,38
800013a8:	3345                	jal	80001148 <LCD_WR_DATA8>
800013aa:	02300513          	li	a0,35
800013ae:	3b69                	jal	80001148 <LCD_WR_DATA8>
800013b0:	02700513          	li	a0,39
800013b4:	3b51                	jal	80001148 <LCD_WR_DATA8>
800013b6:	02700513          	li	a0,39
800013ba:	3379                	jal	80001148 <LCD_WR_DATA8>
800013bc:	02500513          	li	a0,37
800013c0:	3361                	jal	80001148 <LCD_WR_DATA8>
800013c2:	02d00513          	li	a0,45
800013c6:	3349                	jal	80001148 <LCD_WR_DATA8>
800013c8:	03b00513          	li	a0,59
800013cc:	3bb5                	jal	80001148 <LCD_WR_DATA8>
800013ce:	4501                	li	a0,0
800013d0:	3ba5                	jal	80001148 <LCD_WR_DATA8>
800013d2:	4505                	li	a0,1
800013d4:	3b95                	jal	80001148 <LCD_WR_DATA8>
800013d6:	4511                	li	a0,4
800013d8:	3b85                	jal	80001148 <LCD_WR_DATA8>
800013da:	454d                	li	a0,19
800013dc:	33b5                	jal	80001148 <LCD_WR_DATA8>
800013de:	03a00513          	li	a0,58
800013e2:	3b75                	jal	8000119e <LCD_WR_REG>
800013e4:	4515                	li	a0,5
800013e6:	338d                	jal	80001148 <LCD_WR_DATA8>
800013e8:	02900513          	li	a0,41
800013ec:	3b4d                	jal	8000119e <LCD_WR_REG>
800013ee:	0001                	nop
800013f0:	40b2                	lw	ra,12(sp)
800013f2:	4422                	lw	s0,8(sp)
800013f4:	0141                	addi	sp,sp,16
800013f6:	8082                	ret

800013f8 <main>:
800013f8:	1101                	addi	sp,sp,-32
800013fa:	ce06                	sw	ra,28(sp)
800013fc:	cc22                	sw	s0,24(sp)
800013fe:	1000                	addi	s0,sp,32
80001400:	fe042623          	sw	zero,-20(s0)
80001404:	482010ef          	jal	ra,80002886 <board_init>
80001408:	3515                	jal	8000122c <LCD_Init>
8000140a:	67c1                	lui	a5,0x10
8000140c:	fff78713          	addi	a4,a5,-1 # ffff <ITIM_SIZE+0xbfff>
80001410:	0a000693          	li	a3,160
80001414:	08000613          	li	a2,128
80001418:	4581                	li	a1,0
8000141a:	4501                	li	a0,0
8000141c:	82cff0ef          	jal	ra,80000448 <LCD_Fill>
80001420:	4801                	li	a6,0
80001422:	47c1                	li	a5,16
80001424:	6741                	lui	a4,0x10
80001426:	177d                	addi	a4,a4,-1
80001428:	66c1                	lui	a3,0x10
8000142a:	80068693          	addi	a3,a3,-2048 # f800 <ITIM_SIZE+0xb800>
8000142e:	20000637          	lui	a2,0x20000
80001432:	54060613          	addi	a2,a2,1344 # 20000540 <tfont32+0x290>
80001436:	45f9                	li	a1,30
80001438:	4501                	li	a0,0
8000143a:	8fcff0ef          	jal	ra,80000536 <LCD_ShowChinese>
8000143e:	b7cd                	j	80001420 <main+0x28>

80001440 <printnum>:
80001440:	714d                	addi	sp,sp,-336
80001442:	14112623          	sw	ra,332(sp)
80001446:	14812423          	sw	s0,328(sp)
8000144a:	15212223          	sw	s2,324(sp)
8000144e:	15312023          	sw	s3,320(sp)
80001452:	13412e23          	sw	s4,316(sp)
80001456:	13512c23          	sw	s5,312(sp)
8000145a:	13612a23          	sw	s6,308(sp)
8000145e:	13712823          	sw	s7,304(sp)
80001462:	0a80                	addi	s0,sp,336
80001464:	eca42623          	sw	a0,-308(s0)
80001468:	ecb42423          	sw	a1,-312(s0)
8000146c:	ecc42023          	sw	a2,-320(s0)
80001470:	ecd42223          	sw	a3,-316(s0)
80001474:	eae42e23          	sw	a4,-324(s0)
80001478:	eaf42c23          	sw	a5,-328(s0)
8000147c:	eb042a23          	sw	a6,-332(s0)
80001480:	eb142823          	sw	a7,-336(s0)
80001484:	fc042e23          	sw	zero,-36(s0)
80001488:	06100793          	li	a5,97
8000148c:	fcf42c23          	sw	a5,-40(s0)
80001490:	ebc42783          	lw	a5,-324(s0)
80001494:	0007dc63          	bgez	a5,800014ac <printnum+0x6c>
80001498:	04100793          	li	a5,65
8000149c:	fcf42c23          	sw	a5,-40(s0)
800014a0:	ebc42783          	lw	a5,-324(s0)
800014a4:	40f007b3          	neg	a5,a5
800014a8:	eaf42e23          	sw	a5,-324(s0)
800014ac:	ebc42783          	lw	a5,-324(s0)
800014b0:	8a3e                	mv	s4,a5
800014b2:	87fd                	srai	a5,a5,0x1f
800014b4:	8abe                	mv	s5,a5
800014b6:	8652                	mv	a2,s4
800014b8:	86d6                	mv	a3,s5
800014ba:	ec042503          	lw	a0,-320(s0)
800014be:	ec442583          	lw	a1,-316(s0)
800014c2:	54a010ef          	jal	ra,80002a0c <__udivdi3>
800014c6:	872a                	mv	a4,a0
800014c8:	87ae                	mv	a5,a1
800014ca:	fce42823          	sw	a4,-48(s0)
800014ce:	fcf42a23          	sw	a5,-44(s0)
800014d2:	ec042683          	lw	a3,-320(s0)
800014d6:	ebc42783          	lw	a5,-324(s0)
800014da:	8b3e                	mv	s6,a5
800014dc:	87fd                	srai	a5,a5,0x1f
800014de:	8bbe                	mv	s7,a5
800014e0:	875a                	mv	a4,s6
800014e2:	fd042783          	lw	a5,-48(s0)
800014e6:	02f70733          	mul	a4,a4,a5
800014ea:	fdc42783          	lw	a5,-36(s0)
800014ee:	00178613          	addi	a2,a5,1
800014f2:	fcc42e23          	sw	a2,-36(s0)
800014f6:	40e68733          	sub	a4,a3,a4
800014fa:	078a                	slli	a5,a5,0x2
800014fc:	1781                	addi	a5,a5,-32
800014fe:	97a2                	add	a5,a5,s0
80001500:	eee7a823          	sw	a4,-272(a5)
80001504:	ebc42783          	lw	a5,-324(s0)
80001508:	893e                	mv	s2,a5
8000150a:	87fd                	srai	a5,a5,0x1f
8000150c:	89be                	mv	s3,a5
8000150e:	ec442783          	lw	a5,-316(s0)
80001512:	874e                	mv	a4,s3
80001514:	02e7e563          	bltu	a5,a4,8000153e <printnum+0xfe>
80001518:	ec442783          	lw	a5,-316(s0)
8000151c:	874e                	mv	a4,s3
8000151e:	00e79763          	bne	a5,a4,8000152c <printnum+0xec>
80001522:	ec042783          	lw	a5,-320(s0)
80001526:	874a                	mv	a4,s2
80001528:	00e7eb63          	bltu	a5,a4,8000153e <printnum+0xfe>
8000152c:	fd042703          	lw	a4,-48(s0)
80001530:	fd442783          	lw	a5,-44(s0)
80001534:	ece42023          	sw	a4,-320(s0)
80001538:	ecf42223          	sw	a5,-316(s0)
8000153c:	bf85                	j	800014ac <printnum+0x6c>
8000153e:	0001                	nop
80001540:	a005                	j	80001560 <printnum+0x120>
80001542:	eb042783          	lw	a5,-336(s0)
80001546:	00178713          	addi	a4,a5,1
8000154a:	eae42823          	sw	a4,-336(s0)
8000154e:	ecc42703          	lw	a4,-308(s0)
80001552:	4014                	lw	a3,0(s0)
80001554:	863e                	mv	a2,a5
80001556:	ec842583          	lw	a1,-312(s0)
8000155a:	eb442503          	lw	a0,-332(s0)
8000155e:	9702                	jalr	a4
80001560:	eb842783          	lw	a5,-328(s0)
80001564:	fff78713          	addi	a4,a5,-1
80001568:	eae42c23          	sw	a4,-328(s0)
8000156c:	fdc42703          	lw	a4,-36(s0)
80001570:	fcf749e3          	blt	a4,a5,80001542 <printnum+0x102>
80001574:	a0b9                	j	800015c2 <printnum+0x182>
80001576:	fdc42783          	lw	a5,-36(s0)
8000157a:	078a                	slli	a5,a5,0x2
8000157c:	1781                	addi	a5,a5,-32
8000157e:	97a2                	add	a5,a5,s0
80001580:	ef07a703          	lw	a4,-272(a5)
80001584:	fdc42783          	lw	a5,-36(s0)
80001588:	078a                	slli	a5,a5,0x2
8000158a:	1781                	addi	a5,a5,-32
8000158c:	97a2                	add	a5,a5,s0
8000158e:	ef07a683          	lw	a3,-272(a5)
80001592:	47a5                	li	a5,9
80001594:	00d7f663          	bgeu	a5,a3,800015a0 <printnum+0x160>
80001598:	fd842783          	lw	a5,-40(s0)
8000159c:	17d9                	addi	a5,a5,-10
8000159e:	a019                	j	800015a4 <printnum+0x164>
800015a0:	03000793          	li	a5,48
800015a4:	97ba                	add	a5,a5,a4
800015a6:	853e                	mv	a0,a5
800015a8:	eb042783          	lw	a5,-336(s0)
800015ac:	00178713          	addi	a4,a5,1
800015b0:	eae42823          	sw	a4,-336(s0)
800015b4:	ecc42703          	lw	a4,-308(s0)
800015b8:	4014                	lw	a3,0(s0)
800015ba:	863e                	mv	a2,a5
800015bc:	ec842583          	lw	a1,-312(s0)
800015c0:	9702                	jalr	a4
800015c2:	fdc42783          	lw	a5,-36(s0)
800015c6:	fff78713          	addi	a4,a5,-1
800015ca:	fce42e23          	sw	a4,-36(s0)
800015ce:	faf044e3          	bgtz	a5,80001576 <printnum+0x136>
800015d2:	eb042783          	lw	a5,-336(s0)
800015d6:	853e                	mv	a0,a5
800015d8:	14c12083          	lw	ra,332(sp)
800015dc:	14812403          	lw	s0,328(sp)
800015e0:	14412903          	lw	s2,324(sp)
800015e4:	14012983          	lw	s3,320(sp)
800015e8:	13c12a03          	lw	s4,316(sp)
800015ec:	13812a83          	lw	s5,312(sp)
800015f0:	13412b03          	lw	s6,308(sp)
800015f4:	13012b83          	lw	s7,304(sp)
800015f8:	6171                	addi	sp,sp,336
800015fa:	8082                	ret

800015fc <getuint>:
800015fc:	1101                	addi	sp,sp,-32
800015fe:	ce22                	sw	s0,28(sp)
80001600:	1000                	addi	s0,sp,32
80001602:	fea42623          	sw	a0,-20(s0)
80001606:	feb42423          	sw	a1,-24(s0)
8000160a:	fe842603          	lw	a2,-24(s0)
8000160e:	4685                	li	a3,1
80001610:	00c6df63          	bge	a3,a2,8000162e <getuint+0x32>
80001614:	fec42783          	lw	a5,-20(s0)
80001618:	439c                	lw	a5,0(a5)
8000161a:	079d                	addi	a5,a5,7
8000161c:	9be1                	andi	a5,a5,-8
8000161e:	00878693          	addi	a3,a5,8
80001622:	fec42703          	lw	a4,-20(s0)
80001626:	c314                	sw	a3,0(a4)
80001628:	4398                	lw	a4,0(a5)
8000162a:	43dc                	lw	a5,4(a5)
8000162c:	a81d                	j	80001662 <getuint+0x66>
8000162e:	fe842683          	lw	a3,-24(s0)
80001632:	ce89                	beqz	a3,8000164c <getuint+0x50>
80001634:	fec42683          	lw	a3,-20(s0)
80001638:	4294                	lw	a3,0(a3)
8000163a:	00468593          	addi	a1,a3,4
8000163e:	fec42603          	lw	a2,-20(s0)
80001642:	c20c                	sw	a1,0(a2)
80001644:	4294                	lw	a3,0(a3)
80001646:	8736                	mv	a4,a3
80001648:	4781                	li	a5,0
8000164a:	a821                	j	80001662 <getuint+0x66>
8000164c:	fec42683          	lw	a3,-20(s0)
80001650:	4294                	lw	a3,0(a3)
80001652:	00468593          	addi	a1,a3,4
80001656:	fec42603          	lw	a2,-20(s0)
8000165a:	c20c                	sw	a1,0(a2)
8000165c:	4294                	lw	a3,0(a3)
8000165e:	8736                	mv	a4,a3
80001660:	4781                	li	a5,0
80001662:	853a                	mv	a0,a4
80001664:	85be                	mv	a1,a5
80001666:	4472                	lw	s0,28(sp)
80001668:	6105                	addi	sp,sp,32
8000166a:	8082                	ret

8000166c <getint>:
8000166c:	1101                	addi	sp,sp,-32
8000166e:	ce22                	sw	s0,28(sp)
80001670:	1000                	addi	s0,sp,32
80001672:	fea42623          	sw	a0,-20(s0)
80001676:	feb42423          	sw	a1,-24(s0)
8000167a:	fe842603          	lw	a2,-24(s0)
8000167e:	4685                	li	a3,1
80001680:	00c6df63          	bge	a3,a2,8000169e <getint+0x32>
80001684:	fec42783          	lw	a5,-20(s0)
80001688:	439c                	lw	a5,0(a5)
8000168a:	079d                	addi	a5,a5,7
8000168c:	9be1                	andi	a5,a5,-8
8000168e:	00878693          	addi	a3,a5,8
80001692:	fec42703          	lw	a4,-20(s0)
80001696:	c314                	sw	a3,0(a4)
80001698:	4398                	lw	a4,0(a5)
8000169a:	43dc                	lw	a5,4(a5)
8000169c:	a82d                	j	800016d6 <getint+0x6a>
8000169e:	fe842683          	lw	a3,-24(s0)
800016a2:	ce91                	beqz	a3,800016be <getint+0x52>
800016a4:	fec42683          	lw	a3,-20(s0)
800016a8:	4294                	lw	a3,0(a3)
800016aa:	00468593          	addi	a1,a3,4
800016ae:	fec42603          	lw	a2,-20(s0)
800016b2:	c20c                	sw	a1,0(a2)
800016b4:	4294                	lw	a3,0(a3)
800016b6:	8736                	mv	a4,a3
800016b8:	86fd                	srai	a3,a3,0x1f
800016ba:	87b6                	mv	a5,a3
800016bc:	a829                	j	800016d6 <getint+0x6a>
800016be:	fec42683          	lw	a3,-20(s0)
800016c2:	4294                	lw	a3,0(a3)
800016c4:	00468593          	addi	a1,a3,4
800016c8:	fec42603          	lw	a2,-20(s0)
800016cc:	c20c                	sw	a1,0(a2)
800016ce:	4294                	lw	a3,0(a3)
800016d0:	8736                	mv	a4,a3
800016d2:	86fd                	srai	a3,a3,0x1f
800016d4:	87b6                	mv	a5,a3
800016d6:	853a                	mv	a0,a4
800016d8:	85be                	mv	a1,a5
800016da:	4472                	lw	s0,28(sp)
800016dc:	6105                	addi	sp,sp,32
800016de:	8082                	ret

800016e0 <getfloat>:
800016e0:	1101                	addi	sp,sp,-32
800016e2:	ce06                	sw	ra,28(sp)
800016e4:	cc22                	sw	s0,24(sp)
800016e6:	1000                	addi	s0,sp,32
800016e8:	fea42623          	sw	a0,-20(s0)
800016ec:	fec42783          	lw	a5,-20(s0)
800016f0:	439c                	lw	a5,0(a5)
800016f2:	079d                	addi	a5,a5,7
800016f4:	9be1                	andi	a5,a5,-8
800016f6:	00878693          	addi	a3,a5,8
800016fa:	fec42703          	lw	a4,-20(s0)
800016fe:	c314                	sw	a3,0(a4)
80001700:	4398                	lw	a4,0(a5)
80001702:	43dc                	lw	a5,4(a5)
80001704:	853a                	mv	a0,a4
80001706:	85be                	mv	a1,a5
80001708:	52b010ef          	jal	ra,80003432 <__truncdfsf2>
8000170c:	20a507d3          	fmv.s	fa5,fa0
80001710:	20f78553          	fmv.s	fa0,fa5
80001714:	40f2                	lw	ra,28(sp)
80001716:	4462                	lw	s0,24(sp)
80001718:	6105                	addi	sp,sp,32
8000171a:	8082                	ret

8000171c <vprintfmt>:
8000171c:	7159                	addi	sp,sp,-112
8000171e:	d686                	sw	ra,108(sp)
80001720:	d4a2                	sw	s0,104(sp)
80001722:	d2a6                	sw	s1,100(sp)
80001724:	d0ca                	sw	s2,96(sp)
80001726:	1880                	addi	s0,sp,112
80001728:	faa42e23          	sw	a0,-68(s0)
8000172c:	fab42c23          	sw	a1,-72(s0)
80001730:	fac42a23          	sw	a2,-76(s0)
80001734:	fad42823          	sw	a3,-80(s0)
80001738:	fae42623          	sw	a4,-84(s0)
8000173c:	fc042423          	sw	zero,-56(s0)
80001740:	a80d                	j	80001772 <vprintfmt+0x56>
80001742:	e481                	bnez	s1,8000174a <vprintfmt+0x2e>
80001744:	fc842783          	lw	a5,-56(s0)
80001748:	ab5d                	j	80001cfe <vprintfmt+0x5e2>
8000174a:	fb442783          	lw	a5,-76(s0)
8000174e:	0785                	addi	a5,a5,1
80001750:	faf42a23          	sw	a5,-76(s0)
80001754:	8526                	mv	a0,s1
80001756:	fc842783          	lw	a5,-56(s0)
8000175a:	00178713          	addi	a4,a5,1
8000175e:	fce42423          	sw	a4,-56(s0)
80001762:	fbc42703          	lw	a4,-68(s0)
80001766:	fac42683          	lw	a3,-84(s0)
8000176a:	863e                	mv	a2,a5
8000176c:	fb842583          	lw	a1,-72(s0)
80001770:	9702                	jalr	a4
80001772:	fb442783          	lw	a5,-76(s0)
80001776:	0007c483          	lbu	s1,0(a5)
8000177a:	02500793          	li	a5,37
8000177e:	fcf492e3          	bne	s1,a5,80001742 <vprintfmt+0x26>
80001782:	fb442783          	lw	a5,-76(s0)
80001786:	0785                	addi	a5,a5,1
80001788:	faf42a23          	sw	a5,-76(s0)
8000178c:	fb442783          	lw	a5,-76(s0)
80001790:	fcf42223          	sw	a5,-60(s0)
80001794:	02000793          	li	a5,32
80001798:	fcf407a3          	sb	a5,-49(s0)
8000179c:	57fd                	li	a5,-1
8000179e:	fcf42c23          	sw	a5,-40(s0)
800017a2:	57fd                	li	a5,-1
800017a4:	fcf42a23          	sw	a5,-44(s0)
800017a8:	57fd                	li	a5,-1
800017aa:	fcf42823          	sw	a5,-48(s0)
800017ae:	fc042e23          	sw	zero,-36(s0)
800017b2:	fc042023          	sw	zero,-64(s0)
800017b6:	fb442783          	lw	a5,-76(s0)
800017ba:	00178713          	addi	a4,a5,1
800017be:	fae42a23          	sw	a4,-76(s0)
800017c2:	0007c483          	lbu	s1,0(a5)
800017c6:	87a6                	mv	a5,s1
800017c8:	fdd78793          	addi	a5,a5,-35
800017cc:	05500713          	li	a4,85
800017d0:	50f76063          	bltu	a4,a5,80001cd0 <vprintfmt+0x5b4>
800017d4:	00279713          	slli	a4,a5,0x2
800017d8:	200007b7          	lui	a5,0x20000
800017dc:	57878793          	addi	a5,a5,1400 # 20000578 <tfont32+0x2c8>
800017e0:	97ba                	add	a5,a5,a4
800017e2:	439c                	lw	a5,0(a5)
800017e4:	8782                	jr	a5
800017e6:	02d00793          	li	a5,45
800017ea:	fcf407a3          	sb	a5,-49(s0)
800017ee:	b7e1                	j	800017b6 <vprintfmt+0x9a>
800017f0:	03000793          	li	a5,48
800017f4:	fcf407a3          	sb	a5,-49(s0)
800017f8:	bf7d                	j	800017b6 <vprintfmt+0x9a>
800017fa:	fc042a23          	sw	zero,-44(s0)
800017fe:	57fd                	li	a5,-1
80001800:	fcf42823          	sw	a5,-48(s0)
80001804:	02e00793          	li	a5,46
80001808:	00f49563          	bne	s1,a5,80001812 <vprintfmt+0xf6>
8000180c:	fc042823          	sw	zero,-48(s0)
80001810:	a081                	j	80001850 <vprintfmt+0x134>
80001812:	fd042783          	lw	a5,-48(s0)
80001816:	0207c063          	bltz	a5,80001836 <vprintfmt+0x11a>
8000181a:	fd042703          	lw	a4,-48(s0)
8000181e:	87ba                	mv	a5,a4
80001820:	078a                	slli	a5,a5,0x2
80001822:	97ba                	add	a5,a5,a4
80001824:	0786                	slli	a5,a5,0x1
80001826:	873e                	mv	a4,a5
80001828:	87a6                	mv	a5,s1
8000182a:	97ba                	add	a5,a5,a4
8000182c:	fd078793          	addi	a5,a5,-48
80001830:	fcf42823          	sw	a5,-48(s0)
80001834:	a831                	j	80001850 <vprintfmt+0x134>
80001836:	fd442703          	lw	a4,-44(s0)
8000183a:	87ba                	mv	a5,a4
8000183c:	078a                	slli	a5,a5,0x2
8000183e:	97ba                	add	a5,a5,a4
80001840:	0786                	slli	a5,a5,0x1
80001842:	873e                	mv	a4,a5
80001844:	87a6                	mv	a5,s1
80001846:	97ba                	add	a5,a5,a4
80001848:	fd078793          	addi	a5,a5,-48
8000184c:	fcf42a23          	sw	a5,-44(s0)
80001850:	fb442783          	lw	a5,-76(s0)
80001854:	0007c483          	lbu	s1,0(a5)
80001858:	02e00793          	li	a5,46
8000185c:	00f48a63          	beq	s1,a5,80001870 <vprintfmt+0x154>
80001860:	02f00793          	li	a5,47
80001864:	0297fa63          	bgeu	a5,s1,80001898 <vprintfmt+0x17c>
80001868:	03900793          	li	a5,57
8000186c:	0297e663          	bltu	a5,s1,80001898 <vprintfmt+0x17c>
80001870:	fb442783          	lw	a5,-76(s0)
80001874:	0785                	addi	a5,a5,1
80001876:	faf42a23          	sw	a5,-76(s0)
8000187a:	b769                	j	80001804 <vprintfmt+0xe8>
8000187c:	fb042783          	lw	a5,-80(s0)
80001880:	00478713          	addi	a4,a5,4
80001884:	fae42823          	sw	a4,-80(s0)
80001888:	439c                	lw	a5,0(a5)
8000188a:	fcf42a23          	sw	a5,-44(s0)
8000188e:	a031                	j	8000189a <vprintfmt+0x17e>
80001890:	4785                	li	a5,1
80001892:	fcf42023          	sw	a5,-64(s0)
80001896:	b705                	j	800017b6 <vprintfmt+0x9a>
80001898:	0001                	nop
8000189a:	fd842783          	lw	a5,-40(s0)
8000189e:	f007dce3          	bgez	a5,800017b6 <vprintfmt+0x9a>
800018a2:	fd442783          	lw	a5,-44(s0)
800018a6:	fcf42c23          	sw	a5,-40(s0)
800018aa:	57fd                	li	a5,-1
800018ac:	fcf42a23          	sw	a5,-44(s0)
800018b0:	b719                	j	800017b6 <vprintfmt+0x9a>
800018b2:	fdc42783          	lw	a5,-36(s0)
800018b6:	0785                	addi	a5,a5,1
800018b8:	fcf42e23          	sw	a5,-36(s0)
800018bc:	bded                	j	800017b6 <vprintfmt+0x9a>
800018be:	fb042783          	lw	a5,-80(s0)
800018c2:	00478713          	addi	a4,a5,4
800018c6:	fae42823          	sw	a4,-80(s0)
800018ca:	4388                	lw	a0,0(a5)
800018cc:	fc842783          	lw	a5,-56(s0)
800018d0:	00178713          	addi	a4,a5,1
800018d4:	fce42423          	sw	a4,-56(s0)
800018d8:	fbc42703          	lw	a4,-68(s0)
800018dc:	fac42683          	lw	a3,-84(s0)
800018e0:	863e                	mv	a2,a5
800018e2:	fb842583          	lw	a1,-72(s0)
800018e6:	9702                	jalr	a4
800018e8:	a911                	j	80001cfc <vprintfmt+0x5e0>
800018ea:	fb042783          	lw	a5,-80(s0)
800018ee:	00478713          	addi	a4,a5,4
800018f2:	fae42823          	sw	a4,-80(s0)
800018f6:	0007a903          	lw	s2,0(a5)
800018fa:	00091663          	bnez	s2,80001906 <vprintfmt+0x1ea>
800018fe:	200007b7          	lui	a5,0x20000
80001902:	56478913          	addi	s2,a5,1380 # 20000564 <tfont32+0x2b4>
80001906:	fd842783          	lw	a5,-40(s0)
8000190a:	08f05b63          	blez	a5,800019a0 <vprintfmt+0x284>
8000190e:	fcf44703          	lbu	a4,-49(s0)
80001912:	02d00793          	li	a5,45
80001916:	08f70563          	beq	a4,a5,800019a0 <vprintfmt+0x284>
8000191a:	fd842483          	lw	s1,-40(s0)
8000191e:	fd442783          	lw	a5,-44(s0)
80001922:	85be                	mv	a1,a5
80001924:	854a                	mv	a0,s2
80001926:	2189                	jal	80001d68 <strnlen>
80001928:	87aa                	mv	a5,a0
8000192a:	40f487b3          	sub	a5,s1,a5
8000192e:	fcf42c23          	sw	a5,-40(s0)
80001932:	a035                	j	8000195e <vprintfmt+0x242>
80001934:	fcf44503          	lbu	a0,-49(s0)
80001938:	fc842783          	lw	a5,-56(s0)
8000193c:	00178713          	addi	a4,a5,1
80001940:	fce42423          	sw	a4,-56(s0)
80001944:	fbc42703          	lw	a4,-68(s0)
80001948:	fac42683          	lw	a3,-84(s0)
8000194c:	863e                	mv	a2,a5
8000194e:	fb842583          	lw	a1,-72(s0)
80001952:	9702                	jalr	a4
80001954:	fd842783          	lw	a5,-40(s0)
80001958:	17fd                	addi	a5,a5,-1
8000195a:	fcf42c23          	sw	a5,-40(s0)
8000195e:	fd842783          	lw	a5,-40(s0)
80001962:	fcf049e3          	bgtz	a5,80001934 <vprintfmt+0x218>
80001966:	a82d                	j	800019a0 <vprintfmt+0x284>
80001968:	8526                	mv	a0,s1
8000196a:	fc842783          	lw	a5,-56(s0)
8000196e:	00178713          	addi	a4,a5,1
80001972:	fce42423          	sw	a4,-56(s0)
80001976:	fbc42703          	lw	a4,-68(s0)
8000197a:	fac42683          	lw	a3,-84(s0)
8000197e:	863e                	mv	a2,a5
80001980:	fb842583          	lw	a1,-72(s0)
80001984:	9702                	jalr	a4
80001986:	0905                	addi	s2,s2,1
80001988:	fdc42783          	lw	a5,-36(s0)
8000198c:	c789                	beqz	a5,80001996 <vprintfmt+0x27a>
8000198e:	00094783          	lbu	a5,0(s2)
80001992:	e391                	bnez	a5,80001996 <vprintfmt+0x27a>
80001994:	0905                	addi	s2,s2,1
80001996:	fd842783          	lw	a5,-40(s0)
8000199a:	17fd                	addi	a5,a5,-1
8000199c:	fcf42c23          	sw	a5,-40(s0)
800019a0:	00094483          	lbu	s1,0(s2)
800019a4:	c4a1                	beqz	s1,800019ec <vprintfmt+0x2d0>
800019a6:	fd442783          	lw	a5,-44(s0)
800019aa:	fa07cfe3          	bltz	a5,80001968 <vprintfmt+0x24c>
800019ae:	fd442783          	lw	a5,-44(s0)
800019b2:	17fd                	addi	a5,a5,-1
800019b4:	fcf42a23          	sw	a5,-44(s0)
800019b8:	fd442783          	lw	a5,-44(s0)
800019bc:	fa07d6e3          	bgez	a5,80001968 <vprintfmt+0x24c>
800019c0:	a035                	j	800019ec <vprintfmt+0x2d0>
800019c2:	fc842783          	lw	a5,-56(s0)
800019c6:	00178713          	addi	a4,a5,1
800019ca:	fce42423          	sw	a4,-56(s0)
800019ce:	fbc42703          	lw	a4,-68(s0)
800019d2:	fac42683          	lw	a3,-84(s0)
800019d6:	863e                	mv	a2,a5
800019d8:	fb842583          	lw	a1,-72(s0)
800019dc:	02000513          	li	a0,32
800019e0:	9702                	jalr	a4
800019e2:	fd842783          	lw	a5,-40(s0)
800019e6:	17fd                	addi	a5,a5,-1
800019e8:	fcf42c23          	sw	a5,-40(s0)
800019ec:	fd842783          	lw	a5,-40(s0)
800019f0:	fcf049e3          	bgtz	a5,800019c2 <vprintfmt+0x2a6>
800019f4:	a621                	j	80001cfc <vprintfmt+0x5e0>
800019f6:	fb040793          	addi	a5,s0,-80
800019fa:	fdc42583          	lw	a1,-36(s0)
800019fe:	853e                	mv	a0,a5
80001a00:	31b5                	jal	8000166c <getint>
80001a02:	872a                	mv	a4,a0
80001a04:	87ae                	mv	a5,a1
80001a06:	fee42423          	sw	a4,-24(s0)
80001a0a:	fef42623          	sw	a5,-20(s0)
80001a0e:	fe842703          	lw	a4,-24(s0)
80001a12:	fec42783          	lw	a5,-20(s0)
80001a16:	0407d863          	bgez	a5,80001a66 <vprintfmt+0x34a>
80001a1a:	fc842783          	lw	a5,-56(s0)
80001a1e:	00178713          	addi	a4,a5,1
80001a22:	fce42423          	sw	a4,-56(s0)
80001a26:	fbc42703          	lw	a4,-68(s0)
80001a2a:	fac42683          	lw	a3,-84(s0)
80001a2e:	863e                	mv	a2,a5
80001a30:	fb842583          	lw	a1,-72(s0)
80001a34:	02d00513          	li	a0,45
80001a38:	9702                	jalr	a4
80001a3a:	fe842503          	lw	a0,-24(s0)
80001a3e:	fec42583          	lw	a1,-20(s0)
80001a42:	4701                	li	a4,0
80001a44:	4781                	li	a5,0
80001a46:	40a70633          	sub	a2,a4,a0
80001a4a:	8832                	mv	a6,a2
80001a4c:	01073833          	sltu	a6,a4,a6
80001a50:	40b786b3          	sub	a3,a5,a1
80001a54:	410687b3          	sub	a5,a3,a6
80001a58:	86be                	mv	a3,a5
80001a5a:	8732                	mv	a4,a2
80001a5c:	87b6                	mv	a5,a3
80001a5e:	fee42423          	sw	a4,-24(s0)
80001a62:	fef42623          	sw	a5,-20(s0)
80001a66:	47a9                	li	a5,10
80001a68:	fef42023          	sw	a5,-32(s0)
80001a6c:	a8bd                	j	80001aea <vprintfmt+0x3ce>
80001a6e:	47a9                	li	a5,10
80001a70:	fef42023          	sw	a5,-32(s0)
80001a74:	a08d                	j	80001ad6 <vprintfmt+0x3ba>
80001a76:	47a1                	li	a5,8
80001a78:	fef42023          	sw	a5,-32(s0)
80001a7c:	a8a9                	j	80001ad6 <vprintfmt+0x3ba>
80001a7e:	4785                	li	a5,1
80001a80:	fcf42e23          	sw	a5,-36(s0)
80001a84:	fc842783          	lw	a5,-56(s0)
80001a88:	00178713          	addi	a4,a5,1
80001a8c:	fce42423          	sw	a4,-56(s0)
80001a90:	fbc42703          	lw	a4,-68(s0)
80001a94:	fac42683          	lw	a3,-84(s0)
80001a98:	863e                	mv	a2,a5
80001a9a:	fb842583          	lw	a1,-72(s0)
80001a9e:	03000513          	li	a0,48
80001aa2:	9702                	jalr	a4
80001aa4:	fc842783          	lw	a5,-56(s0)
80001aa8:	00178713          	addi	a4,a5,1
80001aac:	fce42423          	sw	a4,-56(s0)
80001ab0:	fbc42703          	lw	a4,-68(s0)
80001ab4:	fac42683          	lw	a3,-84(s0)
80001ab8:	863e                	mv	a2,a5
80001aba:	fb842583          	lw	a1,-72(s0)
80001abe:	07800513          	li	a0,120
80001ac2:	9702                	jalr	a4
80001ac4:	07800793          	li	a5,120
80001ac8:	00f49463          	bne	s1,a5,80001ad0 <vprintfmt+0x3b4>
80001acc:	47c1                	li	a5,16
80001ace:	a011                	j	80001ad2 <vprintfmt+0x3b6>
80001ad0:	57c1                	li	a5,-16
80001ad2:	fef42023          	sw	a5,-32(s0)
80001ad6:	fb040793          	addi	a5,s0,-80
80001ada:	fdc42583          	lw	a1,-36(s0)
80001ade:	853e                	mv	a0,a5
80001ae0:	3e31                	jal	800015fc <getuint>
80001ae2:	fea42423          	sw	a0,-24(s0)
80001ae6:	feb42623          	sw	a1,-20(s0)
80001aea:	fcf44703          	lbu	a4,-49(s0)
80001aee:	fac42783          	lw	a5,-84(s0)
80001af2:	c03e                	sw	a5,0(sp)
80001af4:	fc842883          	lw	a7,-56(s0)
80001af8:	883a                	mv	a6,a4
80001afa:	fd842783          	lw	a5,-40(s0)
80001afe:	fe042703          	lw	a4,-32(s0)
80001b02:	fe842603          	lw	a2,-24(s0)
80001b06:	fec42683          	lw	a3,-20(s0)
80001b0a:	fb842583          	lw	a1,-72(s0)
80001b0e:	fbc42503          	lw	a0,-68(s0)
80001b12:	92fff0ef          	jal	ra,80001440 <printnum>
80001b16:	fca42423          	sw	a0,-56(s0)
80001b1a:	a2cd                	j	80001cfc <vprintfmt+0x5e0>
80001b1c:	fb040793          	addi	a5,s0,-80
80001b20:	853e                	mv	a0,a5
80001b22:	3e7d                	jal	800016e0 <getfloat>
80001b24:	fea42227          	fsw	fa0,-28(s0)
80001b28:	fe442787          	flw	fa5,-28(s0)
80001b2c:	f0000753          	fmv.w.x	fa4,zero
80001b30:	a0e797d3          	flt.s	a5,fa5,fa4
80001b34:	c79d                	beqz	a5,80001b62 <vprintfmt+0x446>
80001b36:	fc842783          	lw	a5,-56(s0)
80001b3a:	00178713          	addi	a4,a5,1
80001b3e:	fce42423          	sw	a4,-56(s0)
80001b42:	fbc42703          	lw	a4,-68(s0)
80001b46:	fac42683          	lw	a3,-84(s0)
80001b4a:	863e                	mv	a2,a5
80001b4c:	fb842583          	lw	a1,-72(s0)
80001b50:	02d00513          	li	a0,45
80001b54:	9702                	jalr	a4
80001b56:	fe442787          	flw	fa5,-28(s0)
80001b5a:	20f797d3          	fneg.s	fa5,fa5
80001b5e:	fef42227          	fsw	fa5,-28(s0)
80001b62:	fd042783          	lw	a5,-48(s0)
80001b66:	0007d563          	bgez	a5,80001b70 <vprintfmt+0x454>
80001b6a:	478d                	li	a5,3
80001b6c:	fcf42823          	sw	a5,-48(s0)
80001b70:	fd842783          	lw	a5,-40(s0)
80001b74:	0207c363          	bltz	a5,80001b9a <vprintfmt+0x47e>
80001b78:	fd842703          	lw	a4,-40(s0)
80001b7c:	fd042783          	lw	a5,-48(s0)
80001b80:	40f707b3          	sub	a5,a4,a5
80001b84:	fcf42c23          	sw	a5,-40(s0)
80001b88:	fd042783          	lw	a5,-48(s0)
80001b8c:	00f05763          	blez	a5,80001b9a <vprintfmt+0x47e>
80001b90:	fd842783          	lw	a5,-40(s0)
80001b94:	17fd                	addi	a5,a5,-1
80001b96:	fcf42c23          	sw	a5,-40(s0)
80001b9a:	47a9                	li	a5,10
80001b9c:	fef42023          	sw	a5,-32(s0)
80001ba0:	fe442787          	flw	fa5,-28(s0)
80001ba4:	c00797d3          	fcvt.w.s	a5,fa5,rtz
80001ba8:	fef42423          	sw	a5,-24(s0)
80001bac:	87fd                	srai	a5,a5,0x1f
80001bae:	fef42623          	sw	a5,-20(s0)
80001bb2:	fe842783          	lw	a5,-24(s0)
80001bb6:	d017f7d3          	fcvt.s.wu	fa5,a5
80001bba:	fe442707          	flw	fa4,-28(s0)
80001bbe:	08f777d3          	fsub.s	fa5,fa4,fa5
80001bc2:	fef42227          	fsw	fa5,-28(s0)
80001bc6:	fcf44703          	lbu	a4,-49(s0)
80001bca:	fac42783          	lw	a5,-84(s0)
80001bce:	c03e                	sw	a5,0(sp)
80001bd0:	fc842883          	lw	a7,-56(s0)
80001bd4:	883a                	mv	a6,a4
80001bd6:	fd842783          	lw	a5,-40(s0)
80001bda:	fe042703          	lw	a4,-32(s0)
80001bde:	fe842603          	lw	a2,-24(s0)
80001be2:	fec42683          	lw	a3,-20(s0)
80001be6:	fb842583          	lw	a1,-72(s0)
80001bea:	fbc42503          	lw	a0,-68(s0)
80001bee:	853ff0ef          	jal	ra,80001440 <printnum>
80001bf2:	fca42423          	sw	a0,-56(s0)
80001bf6:	fd042783          	lw	a5,-48(s0)
80001bfa:	10f05063          	blez	a5,80001cfa <vprintfmt+0x5de>
80001bfe:	4781                	li	a5,0
80001c00:	4801                	li	a6,0
80001c02:	fef42423          	sw	a5,-24(s0)
80001c06:	ff042623          	sw	a6,-20(s0)
80001c0a:	fd042783          	lw	a5,-48(s0)
80001c0e:	fcf42c23          	sw	a5,-40(s0)
80001c12:	03000793          	li	a5,48
80001c16:	fcf407a3          	sb	a5,-49(s0)
80001c1a:	fc842783          	lw	a5,-56(s0)
80001c1e:	00178713          	addi	a4,a5,1
80001c22:	fce42423          	sw	a4,-56(s0)
80001c26:	fbc42703          	lw	a4,-68(s0)
80001c2a:	fac42683          	lw	a3,-84(s0)
80001c2e:	863e                	mv	a2,a5
80001c30:	fb842583          	lw	a1,-72(s0)
80001c34:	02e00513          	li	a0,46
80001c38:	9702                	jalr	a4
80001c3a:	a819                	j	80001c50 <vprintfmt+0x534>
80001c3c:	fe442707          	flw	fa4,-28(s0)
80001c40:	200007b7          	lui	a5,0x20000
80001c44:	5707a787          	flw	fa5,1392(a5) # 20000570 <tfont32+0x2c0>
80001c48:	10f777d3          	fmul.s	fa5,fa4,fa5
80001c4c:	fef42227          	fsw	fa5,-28(s0)
80001c50:	fd042783          	lw	a5,-48(s0)
80001c54:	fff78713          	addi	a4,a5,-1
80001c58:	fce42823          	sw	a4,-48(s0)
80001c5c:	fef040e3          	bgtz	a5,80001c3c <vprintfmt+0x520>
80001c60:	fe442707          	flw	fa4,-28(s0)
80001c64:	200007b7          	lui	a5,0x20000
80001c68:	5747a787          	flw	fa5,1396(a5) # 20000574 <tfont32+0x2c4>
80001c6c:	00f777d3          	fadd.s	fa5,fa4,fa5
80001c70:	c00797d3          	fcvt.w.s	a5,fa5,rtz
80001c74:	fef42423          	sw	a5,-24(s0)
80001c78:	87fd                	srai	a5,a5,0x1f
80001c7a:	fef42623          	sw	a5,-20(s0)
80001c7e:	fcf44703          	lbu	a4,-49(s0)
80001c82:	fac42783          	lw	a5,-84(s0)
80001c86:	c03e                	sw	a5,0(sp)
80001c88:	fc842883          	lw	a7,-56(s0)
80001c8c:	883a                	mv	a6,a4
80001c8e:	fd842783          	lw	a5,-40(s0)
80001c92:	fe042703          	lw	a4,-32(s0)
80001c96:	fe842603          	lw	a2,-24(s0)
80001c9a:	fec42683          	lw	a3,-20(s0)
80001c9e:	fb842583          	lw	a1,-72(s0)
80001ca2:	fbc42503          	lw	a0,-68(s0)
80001ca6:	f9aff0ef          	jal	ra,80001440 <printnum>
80001caa:	fca42423          	sw	a0,-56(s0)
80001cae:	a0b1                	j	80001cfa <vprintfmt+0x5de>
80001cb0:	8526                	mv	a0,s1
80001cb2:	fc842783          	lw	a5,-56(s0)
80001cb6:	00178713          	addi	a4,a5,1
80001cba:	fce42423          	sw	a4,-56(s0)
80001cbe:	fbc42703          	lw	a4,-68(s0)
80001cc2:	fac42683          	lw	a3,-84(s0)
80001cc6:	863e                	mv	a2,a5
80001cc8:	fb842583          	lw	a1,-72(s0)
80001ccc:	9702                	jalr	a4
80001cce:	a03d                	j	80001cfc <vprintfmt+0x5e0>
80001cd0:	fc842783          	lw	a5,-56(s0)
80001cd4:	00178713          	addi	a4,a5,1
80001cd8:	fce42423          	sw	a4,-56(s0)
80001cdc:	fbc42703          	lw	a4,-68(s0)
80001ce0:	fac42683          	lw	a3,-84(s0)
80001ce4:	863e                	mv	a2,a5
80001ce6:	fb842583          	lw	a1,-72(s0)
80001cea:	02500513          	li	a0,37
80001cee:	9702                	jalr	a4
80001cf0:	fc442783          	lw	a5,-60(s0)
80001cf4:	faf42a23          	sw	a5,-76(s0)
80001cf8:	a011                	j	80001cfc <vprintfmt+0x5e0>
80001cfa:	0001                	nop
80001cfc:	bc9d                	j	80001772 <vprintfmt+0x56>
80001cfe:	853e                	mv	a0,a5
80001d00:	50b6                	lw	ra,108(sp)
80001d02:	5426                	lw	s0,104(sp)
80001d04:	5496                	lw	s1,100(sp)
80001d06:	5906                	lw	s2,96(sp)
80001d08:	6165                	addi	sp,sp,112
80001d0a:	8082                	ret

80001d0c <printf>:
80001d0c:	715d                	addi	sp,sp,-80
80001d0e:	d606                	sw	ra,44(sp)
80001d10:	d422                	sw	s0,40(sp)
80001d12:	1800                	addi	s0,sp,48
80001d14:	fca42e23          	sw	a0,-36(s0)
80001d18:	c04c                	sw	a1,4(s0)
80001d1a:	c410                	sw	a2,8(s0)
80001d1c:	c454                	sw	a3,12(s0)
80001d1e:	c818                	sw	a4,16(s0)
80001d20:	c85c                	sw	a5,20(s0)
80001d22:	01042c23          	sw	a6,24(s0)
80001d26:	01142e23          	sw	a7,28(s0)
80001d2a:	02040793          	addi	a5,s0,32
80001d2e:	fcf42c23          	sw	a5,-40(s0)
80001d32:	fd842783          	lw	a5,-40(s0)
80001d36:	1791                	addi	a5,a5,-28
80001d38:	fef42423          	sw	a5,-24(s0)
80001d3c:	fe842783          	lw	a5,-24(s0)
80001d40:	4701                	li	a4,0
80001d42:	86be                	mv	a3,a5
80001d44:	fdc42603          	lw	a2,-36(s0)
80001d48:	4581                	li	a1,0
80001d4a:	800027b7          	lui	a5,0x80002
80001d4e:	68478513          	addi	a0,a5,1668 # 80002684 <__sdata_lma+0xffffe580>
80001d52:	9cbff0ef          	jal	ra,8000171c <vprintfmt>
80001d56:	fea42623          	sw	a0,-20(s0)
80001d5a:	fec42783          	lw	a5,-20(s0)
80001d5e:	853e                	mv	a0,a5
80001d60:	50b2                	lw	ra,44(sp)
80001d62:	5422                	lw	s0,40(sp)
80001d64:	6161                	addi	sp,sp,80
80001d66:	8082                	ret

80001d68 <strnlen>:
80001d68:	7179                	addi	sp,sp,-48
80001d6a:	d622                	sw	s0,44(sp)
80001d6c:	1800                	addi	s0,sp,48
80001d6e:	fca42e23          	sw	a0,-36(s0)
80001d72:	fcb42c23          	sw	a1,-40(s0)
80001d76:	fdc42783          	lw	a5,-36(s0)
80001d7a:	fef42623          	sw	a5,-20(s0)
80001d7e:	a031                	j	80001d8a <strnlen+0x22>
80001d80:	fec42783          	lw	a5,-20(s0)
80001d84:	0785                	addi	a5,a5,1
80001d86:	fef42623          	sw	a5,-20(s0)
80001d8a:	fd842783          	lw	a5,-40(s0)
80001d8e:	fff78713          	addi	a4,a5,-1
80001d92:	fce42c23          	sw	a4,-40(s0)
80001d96:	c791                	beqz	a5,80001da2 <strnlen+0x3a>
80001d98:	fec42783          	lw	a5,-20(s0)
80001d9c:	0007c783          	lbu	a5,0(a5)
80001da0:	f3e5                	bnez	a5,80001d80 <strnlen+0x18>
80001da2:	fec42703          	lw	a4,-20(s0)
80001da6:	fdc42783          	lw	a5,-36(s0)
80001daa:	40f707b3          	sub	a5,a4,a5
80001dae:	853e                	mv	a0,a5
80001db0:	5432                	lw	s0,44(sp)
80001db2:	6145                	addi	sp,sp,48
80001db4:	8082                	ret

80001db6 <DMAC_Init>:
80001db6:	1101                	addi	sp,sp,-32
80001db8:	ce22                	sw	s0,28(sp)
80001dba:	1000                	addi	s0,sp,32
80001dbc:	410007b7          	lui	a5,0x41000
80001dc0:	0207a823          	sw	zero,48(a5) # 41000030 <__stack_pointer$+0x20fe0030>
80001dc4:	fe042623          	sw	zero,-20(s0)
80001dc8:	a831                	j	80001de4 <DMAC_Init+0x2e>
80001dca:	41000737          	lui	a4,0x41000
80001dce:	fec42783          	lw	a5,-20(s0)
80001dd2:	0796                	slli	a5,a5,0x5
80001dd4:	97ba                	add	a5,a5,a4
80001dd6:	1007a823          	sw	zero,272(a5)
80001dda:	fec42783          	lw	a5,-20(s0)
80001dde:	0785                	addi	a5,a5,1
80001de0:	fef42623          	sw	a5,-20(s0)
80001de4:	fec42703          	lw	a4,-20(s0)
80001de8:	479d                	li	a5,7
80001dea:	fee7d0e3          	bge	a5,a4,80001dca <DMAC_Init+0x14>
80001dee:	410007b7          	lui	a5,0x41000
80001df2:	577d                	li	a4,-1
80001df4:	cb98                	sw	a4,16(a5)
80001df6:	410007b7          	lui	a5,0x41000
80001dfa:	577d                	li	a4,-1
80001dfc:	c798                	sw	a4,8(a5)
80001dfe:	410007b7          	lui	a5,0x41000
80001e02:	4705                	li	a4,1
80001e04:	db98                	sw	a4,48(a5)
80001e06:	0001                	nop
80001e08:	4472                	lw	s0,28(sp)
80001e0a:	6105                	addi	sp,sp,32
80001e0c:	8082                	ret

80001e0e <GPIO_IntConfig>:
80001e0e:	1101                	addi	sp,sp,-32
80001e10:	ce22                	sw	s0,28(sp)
80001e12:	1000                	addi	s0,sp,32
80001e14:	fea42623          	sw	a0,-20(s0)
80001e18:	87ae                	mv	a5,a1
80001e1a:	fec42223          	sw	a2,-28(s0)
80001e1e:	fef405a3          	sb	a5,-21(s0)
80001e22:	fe442703          	lw	a4,-28(s0)
80001e26:	4791                	li	a5,4
80001e28:	14e7e463          	bltu	a5,a4,80001f70 <GPIO_IntConfig+0x162>
80001e2c:	fe442783          	lw	a5,-28(s0)
80001e30:	00279713          	slli	a4,a5,0x2
80001e34:	200007b7          	lui	a5,0x20000
80001e38:	6d078793          	addi	a5,a5,1744 # 200006d0 <tfont32+0x420>
80001e3c:	97ba                	add	a5,a5,a4
80001e3e:	439c                	lw	a5,0(a5)
80001e40:	8782                	jr	a5
80001e42:	fec42783          	lw	a5,-20(s0)
80001e46:	4047a703          	lw	a4,1028(a5)
80001e4a:	feb44783          	lbu	a5,-21(s0)
80001e4e:	8f5d                	or	a4,a4,a5
80001e50:	fec42783          	lw	a5,-20(s0)
80001e54:	40e7a223          	sw	a4,1028(a5)
80001e58:	fec42783          	lw	a5,-20(s0)
80001e5c:	40c7a783          	lw	a5,1036(a5)
80001e60:	feb44703          	lbu	a4,-21(s0)
80001e64:	fff74713          	not	a4,a4
80001e68:	8f7d                	and	a4,a4,a5
80001e6a:	fec42783          	lw	a5,-20(s0)
80001e6e:	40e7a623          	sw	a4,1036(a5)
80001e72:	a201                	j	80001f72 <GPIO_IntConfig+0x164>
80001e74:	fec42783          	lw	a5,-20(s0)
80001e78:	4047a703          	lw	a4,1028(a5)
80001e7c:	feb44783          	lbu	a5,-21(s0)
80001e80:	8f5d                	or	a4,a4,a5
80001e82:	fec42783          	lw	a5,-20(s0)
80001e86:	40e7a223          	sw	a4,1028(a5)
80001e8a:	fec42783          	lw	a5,-20(s0)
80001e8e:	40c7a703          	lw	a4,1036(a5)
80001e92:	feb44783          	lbu	a5,-21(s0)
80001e96:	8f5d                	or	a4,a4,a5
80001e98:	fec42783          	lw	a5,-20(s0)
80001e9c:	40e7a623          	sw	a4,1036(a5)
80001ea0:	a8c9                	j	80001f72 <GPIO_IntConfig+0x164>
80001ea2:	fec42783          	lw	a5,-20(s0)
80001ea6:	4047a783          	lw	a5,1028(a5)
80001eaa:	feb44703          	lbu	a4,-21(s0)
80001eae:	fff74713          	not	a4,a4
80001eb2:	8f7d                	and	a4,a4,a5
80001eb4:	fec42783          	lw	a5,-20(s0)
80001eb8:	40e7a223          	sw	a4,1028(a5)
80001ebc:	fec42783          	lw	a5,-20(s0)
80001ec0:	40c7a783          	lw	a5,1036(a5)
80001ec4:	feb44703          	lbu	a4,-21(s0)
80001ec8:	fff74713          	not	a4,a4
80001ecc:	8f7d                	and	a4,a4,a5
80001ece:	fec42783          	lw	a5,-20(s0)
80001ed2:	40e7a623          	sw	a4,1036(a5)
80001ed6:	fec42783          	lw	a5,-20(s0)
80001eda:	4087a783          	lw	a5,1032(a5)
80001ede:	feb44703          	lbu	a4,-21(s0)
80001ee2:	fff74713          	not	a4,a4
80001ee6:	8f7d                	and	a4,a4,a5
80001ee8:	fec42783          	lw	a5,-20(s0)
80001eec:	40e7a423          	sw	a4,1032(a5)
80001ef0:	a049                	j	80001f72 <GPIO_IntConfig+0x164>
80001ef2:	fec42783          	lw	a5,-20(s0)
80001ef6:	4047a783          	lw	a5,1028(a5)
80001efa:	feb44703          	lbu	a4,-21(s0)
80001efe:	fff74713          	not	a4,a4
80001f02:	8f7d                	and	a4,a4,a5
80001f04:	fec42783          	lw	a5,-20(s0)
80001f08:	40e7a223          	sw	a4,1028(a5)
80001f0c:	fec42783          	lw	a5,-20(s0)
80001f10:	40c7a703          	lw	a4,1036(a5)
80001f14:	feb44783          	lbu	a5,-21(s0)
80001f18:	8f5d                	or	a4,a4,a5
80001f1a:	fec42783          	lw	a5,-20(s0)
80001f1e:	40e7a623          	sw	a4,1036(a5)
80001f22:	fec42783          	lw	a5,-20(s0)
80001f26:	4087a783          	lw	a5,1032(a5)
80001f2a:	feb44703          	lbu	a4,-21(s0)
80001f2e:	fff74713          	not	a4,a4
80001f32:	8f7d                	and	a4,a4,a5
80001f34:	fec42783          	lw	a5,-20(s0)
80001f38:	40e7a423          	sw	a4,1032(a5)
80001f3c:	a81d                	j	80001f72 <GPIO_IntConfig+0x164>
80001f3e:	fec42783          	lw	a5,-20(s0)
80001f42:	4047a783          	lw	a5,1028(a5)
80001f46:	feb44703          	lbu	a4,-21(s0)
80001f4a:	fff74713          	not	a4,a4
80001f4e:	8f7d                	and	a4,a4,a5
80001f50:	fec42783          	lw	a5,-20(s0)
80001f54:	40e7a223          	sw	a4,1028(a5)
80001f58:	fec42783          	lw	a5,-20(s0)
80001f5c:	4087a703          	lw	a4,1032(a5)
80001f60:	feb44783          	lbu	a5,-21(s0)
80001f64:	8f5d                	or	a4,a4,a5
80001f66:	fec42783          	lw	a5,-20(s0)
80001f6a:	40e7a423          	sw	a4,1032(a5)
80001f6e:	a011                	j	80001f72 <GPIO_IntConfig+0x164>
80001f70:	0001                	nop
80001f72:	0001                	nop
80001f74:	4472                	lw	s0,28(sp)
80001f76:	6105                	addi	sp,sp,32
80001f78:	8082                	ret

80001f7a <INT_ClaimIRQ>:
80001f7a:	1141                	addi	sp,sp,-16
80001f7c:	c622                	sw	s0,12(sp)
80001f7e:	0800                	addi	s0,sp,16
80001f80:	0c000737          	lui	a4,0xc000
80001f84:	002007b7          	lui	a5,0x200
80001f88:	97ba                	add	a5,a5,a4
80001f8a:	43dc                	lw	a5,4(a5)
80001f8c:	853e                	mv	a0,a5
80001f8e:	4432                	lw	s0,12(sp)
80001f90:	0141                	addi	sp,sp,16
80001f92:	8082                	ret

80001f94 <INT_SetIRQThreshold>:
80001f94:	1101                	addi	sp,sp,-32
80001f96:	ce22                	sw	s0,28(sp)
80001f98:	1000                	addi	s0,sp,32
80001f9a:	fea42623          	sw	a0,-20(s0)
80001f9e:	0c000737          	lui	a4,0xc000
80001fa2:	002007b7          	lui	a5,0x200
80001fa6:	97ba                	add	a5,a5,a4
80001fa8:	fec42703          	lw	a4,-20(s0)
80001fac:	c398                	sw	a4,0(a5)
80001fae:	0001                	nop
80001fb0:	4472                	lw	s0,28(sp)
80001fb2:	6105                	addi	sp,sp,32
80001fb4:	8082                	ret

80001fb6 <INT_CompleteIRQ>:
80001fb6:	1101                	addi	sp,sp,-32
80001fb8:	ce22                	sw	s0,28(sp)
80001fba:	1000                	addi	s0,sp,32
80001fbc:	fea42623          	sw	a0,-20(s0)
80001fc0:	0c000737          	lui	a4,0xc000
80001fc4:	002007b7          	lui	a5,0x200
80001fc8:	97ba                	add	a5,a5,a4
80001fca:	fec42703          	lw	a4,-20(s0)
80001fce:	c3d8                	sw	a4,4(a5)
80001fd0:	0001                	nop
80001fd2:	4472                	lw	s0,28(sp)
80001fd4:	6105                	addi	sp,sp,32
80001fd6:	8082                	ret

80001fd8 <INT_Init>:
80001fd8:	1101                	addi	sp,sp,-32
80001fda:	ce06                	sw	ra,28(sp)
80001fdc:	cc22                	sw	s0,24(sp)
80001fde:	1000                	addi	s0,sp,32
80001fe0:	453d                	li	a0,15
80001fe2:	3f4d                	jal	80001f94 <INT_SetIRQThreshold>
80001fe4:	fe042623          	sw	zero,-20(s0)
80001fe8:	a015                	j	8000200c <INT_Init+0x34>
80001fea:	0c000737          	lui	a4,0xc000
80001fee:	fec42683          	lw	a3,-20(s0)
80001ff2:	6785                	lui	a5,0x1
80001ff4:	80078793          	addi	a5,a5,-2048 # 800 <__sdata_size+0x7f8>
80001ff8:	97b6                	add	a5,a5,a3
80001ffa:	078a                	slli	a5,a5,0x2
80001ffc:	97ba                	add	a5,a5,a4
80001ffe:	577d                	li	a4,-1
80002000:	c398                	sw	a4,0(a5)
80002002:	fec42783          	lw	a5,-20(s0)
80002006:	0785                	addi	a5,a5,1
80002008:	fef42623          	sw	a5,-20(s0)
8000200c:	fec42703          	lw	a4,-20(s0)
80002010:	4785                	li	a5,1
80002012:	fce7dce3          	bge	a5,a4,80001fea <INT_Init+0x12>
80002016:	a021                	j	8000201e <INT_Init+0x46>
80002018:	fe442503          	lw	a0,-28(s0)
8000201c:	3f69                	jal	80001fb6 <INT_CompleteIRQ>
8000201e:	3fb1                	jal	80001f7a <INT_ClaimIRQ>
80002020:	fea42223          	sw	a0,-28(s0)
80002024:	fe442783          	lw	a5,-28(s0)
80002028:	fbe5                	bnez	a5,80002018 <INT_Init+0x40>
8000202a:	4501                	li	a0,0
8000202c:	37a5                	jal	80001f94 <INT_SetIRQThreshold>
8000202e:	fe042423          	sw	zero,-24(s0)
80002032:	a015                	j	80002056 <INT_Init+0x7e>
80002034:	0c000737          	lui	a4,0xc000
80002038:	fe842683          	lw	a3,-24(s0)
8000203c:	6785                	lui	a5,0x1
8000203e:	80078793          	addi	a5,a5,-2048 # 800 <__sdata_size+0x7f8>
80002042:	97b6                	add	a5,a5,a3
80002044:	078a                	slli	a5,a5,0x2
80002046:	97ba                	add	a5,a5,a4
80002048:	0007a023          	sw	zero,0(a5)
8000204c:	fe842783          	lw	a5,-24(s0)
80002050:	0785                	addi	a5,a5,1
80002052:	fef42423          	sw	a5,-24(s0)
80002056:	fe842703          	lw	a4,-24(s0)
8000205a:	4785                	li	a5,1
8000205c:	fce7dce3          	bge	a5,a4,80002034 <INT_Init+0x5c>
80002060:	30405073          	csrwi	mie,0
80002064:	0001                	nop
80002066:	40f2                	lw	ra,28(sp)
80002068:	4462                	lw	s0,24(sp)
8000206a:	6105                	addi	sp,sp,32
8000206c:	8082                	ret

8000206e <exception_handler>:
8000206e:	1141                	addi	sp,sp,-16
80002070:	c622                	sw	s0,12(sp)
80002072:	0800                	addi	s0,sp,16
80002074:	a001                	j	80002074 <exception_handler+0x6>

80002076 <handle_trap>:
80002076:	7179                	addi	sp,sp,-48
80002078:	d606                	sw	ra,44(sp)
8000207a:	d422                	sw	s0,40(sp)
8000207c:	1800                	addi	s0,sp,48
8000207e:	fca42e23          	sw	a0,-36(s0)
80002082:	fcb42c23          	sw	a1,-40(s0)
80002086:	fcc42a23          	sw	a2,-44(s0)
8000208a:	fdc42783          	lw	a5,-36(s0)
8000208e:	0807d663          	bgez	a5,8000211a <handle_trap+0xa4>
80002092:	fdc42703          	lw	a4,-36(s0)
80002096:	800007b7          	lui	a5,0x80000
8000209a:	fff7c793          	not	a5,a5
8000209e:	8ff9                	and	a5,a5,a4
800020a0:	fef42623          	sw	a5,-20(s0)
800020a4:	fec42703          	lw	a4,-20(s0)
800020a8:	47ad                	li	a5,11
800020aa:	04f71263          	bne	a4,a5,800020ee <handle_trap+0x78>
800020ae:	a80d                	j	800020e0 <handle_trap+0x6a>
800020b0:	200017b7          	lui	a5,0x20001
800020b4:	a7c7a703          	lw	a4,-1412(a5) # 20000a7c <plic_isr>
800020b8:	fec42783          	lw	a5,-20(s0)
800020bc:	078a                	slli	a5,a5,0x2
800020be:	97ba                	add	a5,a5,a4
800020c0:	439c                	lw	a5,0(a5)
800020c2:	e391                	bnez	a5,800020c6 <handle_trap+0x50>
800020c4:	376d                	jal	8000206e <exception_handler>
800020c6:	200017b7          	lui	a5,0x20001
800020ca:	a7c7a703          	lw	a4,-1412(a5) # 20000a7c <plic_isr>
800020ce:	fec42783          	lw	a5,-20(s0)
800020d2:	078a                	slli	a5,a5,0x2
800020d4:	97ba                	add	a5,a5,a4
800020d6:	439c                	lw	a5,0(a5)
800020d8:	9782                	jalr	a5
800020da:	fec42503          	lw	a0,-20(s0)
800020de:	3de1                	jal	80001fb6 <INT_CompleteIRQ>
800020e0:	3d69                	jal	80001f7a <INT_ClaimIRQ>
800020e2:	fea42623          	sw	a0,-20(s0)
800020e6:	fec42783          	lw	a5,-20(s0)
800020ea:	f3f9                	bnez	a5,800020b0 <handle_trap+0x3a>
800020ec:	a805                	j	8000211c <handle_trap+0xa6>
800020ee:	200017b7          	lui	a5,0x20001
800020f2:	a807a703          	lw	a4,-1408(a5) # 20000a80 <clint_isr>
800020f6:	fec42783          	lw	a5,-20(s0)
800020fa:	078a                	slli	a5,a5,0x2
800020fc:	97ba                	add	a5,a5,a4
800020fe:	439c                	lw	a5,0(a5)
80002100:	e391                	bnez	a5,80002104 <handle_trap+0x8e>
80002102:	37b5                	jal	8000206e <exception_handler>
80002104:	200017b7          	lui	a5,0x20001
80002108:	a807a703          	lw	a4,-1408(a5) # 20000a80 <clint_isr>
8000210c:	fec42783          	lw	a5,-20(s0)
80002110:	078a                	slli	a5,a5,0x2
80002112:	97ba                	add	a5,a5,a4
80002114:	439c                	lw	a5,0(a5)
80002116:	9782                	jalr	a5
80002118:	a011                	j	8000211c <handle_trap+0xa6>
8000211a:	3f91                	jal	8000206e <exception_handler>
8000211c:	0001                	nop
8000211e:	50b2                	lw	ra,44(sp)
80002120:	5422                	lw	s0,40(sp)
80002122:	6145                	addi	sp,sp,48
80002124:	8082                	ret

80002126 <SYS_GetPLLFreq>:
80002126:	1141                	addi	sp,sp,-16
80002128:	c622                	sw	s0,12(sp)
8000212a:	0800                	addi	s0,sp,16
8000212c:	200007b7          	lui	a5,0x20000
80002130:	7e878793          	addi	a5,a5,2024 # 200007e8 <SYS_Clocks>
80002134:	479c                	lw	a5,8(a5)
80002136:	853e                	mv	a0,a5
80002138:	4432                	lw	s0,12(sp)
8000213a:	0141                	addi	sp,sp,16
8000213c:	8082                	ret

8000213e <SYS_IsHseReady>:
8000213e:	1141                	addi	sp,sp,-16
80002140:	c622                	sw	s0,12(sp)
80002142:	0800                	addi	s0,sp,16
80002144:	030007b7          	lui	a5,0x3000
80002148:	47dc                	lw	a5,12(a5)
8000214a:	8bc1                	andi	a5,a5,16
8000214c:	00f037b3          	snez	a5,a5
80002150:	0ff7f793          	zext.b	a5,a5
80002154:	853e                	mv	a0,a5
80002156:	4432                	lw	s0,12(sp)
80002158:	0141                	addi	sp,sp,16
8000215a:	8082                	ret

8000215c <SYS_IsPllReady>:
8000215c:	1141                	addi	sp,sp,-16
8000215e:	c622                	sw	s0,12(sp)
80002160:	0800                	addi	s0,sp,16
80002162:	030007b7          	lui	a5,0x3000
80002166:	47dc                	lw	a5,12(a5)
80002168:	0407f793          	andi	a5,a5,64
8000216c:	00f037b3          	snez	a5,a5
80002170:	0ff7f793          	zext.b	a5,a5
80002174:	853e                	mv	a0,a5
80002176:	4432                	lw	s0,12(sp)
80002178:	0141                	addi	sp,sp,16
8000217a:	8082                	ret

8000217c <SYS_GetSysClkFreq>:
8000217c:	1141                	addi	sp,sp,-16
8000217e:	c622                	sw	s0,12(sp)
80002180:	0800                	addi	s0,sp,16
80002182:	030007b7          	lui	a5,0x3000
80002186:	47dc                	lw	a5,12(a5)
80002188:	8b8d                	andi	a5,a5,3
8000218a:	4709                	li	a4,2
8000218c:	02e78663          	beq	a5,a4,800021b8 <SYS_GetSysClkFreq+0x3c>
80002190:	4709                	li	a4,2
80002192:	02f76963          	bltu	a4,a5,800021c4 <SYS_GetSysClkFreq+0x48>
80002196:	c789                	beqz	a5,800021a0 <SYS_GetSysClkFreq+0x24>
80002198:	4705                	li	a4,1
8000219a:	00e78963          	beq	a5,a4,800021ac <SYS_GetSysClkFreq+0x30>
8000219e:	a01d                	j	800021c4 <SYS_GetSysClkFreq+0x48>
800021a0:	200007b7          	lui	a5,0x20000
800021a4:	7e878793          	addi	a5,a5,2024 # 200007e8 <SYS_Clocks>
800021a8:	439c                	lw	a5,0(a5)
800021aa:	a015                	j	800021ce <SYS_GetSysClkFreq+0x52>
800021ac:	200007b7          	lui	a5,0x20000
800021b0:	7e878793          	addi	a5,a5,2024 # 200007e8 <SYS_Clocks>
800021b4:	43dc                	lw	a5,4(a5)
800021b6:	a821                	j	800021ce <SYS_GetSysClkFreq+0x52>
800021b8:	200007b7          	lui	a5,0x20000
800021bc:	7e878793          	addi	a5,a5,2024 # 200007e8 <SYS_Clocks>
800021c0:	479c                	lw	a5,8(a5)
800021c2:	a031                	j	800021ce <SYS_GetSysClkFreq+0x52>
800021c4:	200007b7          	lui	a5,0x20000
800021c8:	7e878793          	addi	a5,a5,2024 # 200007e8 <SYS_Clocks>
800021cc:	47dc                	lw	a5,12(a5)
800021ce:	853e                	mv	a0,a5
800021d0:	4432                	lw	s0,12(sp)
800021d2:	0141                	addi	sp,sp,16
800021d4:	8082                	ret

800021d6 <SYS_GetPclkFreq>:
800021d6:	1141                	addi	sp,sp,-16
800021d8:	c606                	sw	ra,12(sp)
800021da:	c422                	sw	s0,8(sp)
800021dc:	0800                	addi	s0,sp,16
800021de:	3f79                	jal	8000217c <SYS_GetSysClkFreq>
800021e0:	872a                	mv	a4,a0
800021e2:	030007b7          	lui	a5,0x3000
800021e6:	5f9c                	lw	a5,56(a5)
800021e8:	0785                	addi	a5,a5,1
800021ea:	02f757b3          	divu	a5,a4,a5
800021ee:	853e                	mv	a0,a5
800021f0:	40b2                	lw	ra,12(sp)
800021f2:	4422                	lw	s0,8(sp)
800021f4:	0141                	addi	sp,sp,16
800021f6:	8082                	ret

800021f8 <SYS_SwitchHSIClock>:
800021f8:	1141                	addi	sp,sp,-16
800021fa:	c622                	sw	s0,12(sp)
800021fc:	0800                	addi	s0,sp,16
800021fe:	030007b7          	lui	a5,0x3000
80002202:	47d8                	lw	a4,12(a5)
80002204:	030007b7          	lui	a5,0x3000
80002208:	9b71                	andi	a4,a4,-4
8000220a:	c7d8                	sw	a4,12(a5)
8000220c:	030007b7          	lui	a5,0x3000
80002210:	47d8                	lw	a4,12(a5)
80002212:	030007b7          	lui	a5,0x3000
80002216:	fdb77713          	andi	a4,a4,-37
8000221a:	c7d8                	sw	a4,12(a5)
8000221c:	0001                	nop
8000221e:	4432                	lw	s0,12(sp)
80002220:	0141                	addi	sp,sp,16
80002222:	8082                	ret

80002224 <SYS_SwitchPLLClock>:
80002224:	7179                	addi	sp,sp,-48
80002226:	d606                	sw	ra,44(sp)
80002228:	d422                	sw	s0,40(sp)
8000222a:	1800                	addi	s0,sp,48
8000222c:	fca42e23          	sw	a0,-36(s0)
80002230:	37e1                	jal	800021f8 <SYS_SwitchHSIClock>
80002232:	3dd5                	jal	80002126 <SYS_GetPLLFreq>
80002234:	87aa                	mv	a5,a0
80002236:	853e                	mv	a0,a5
80002238:	2a09                	jal	8000234a <SYS_SetSclkAuto>
8000223a:	030007b7          	lui	a5,0x3000
8000223e:	47dc                	lw	a5,12(a5)
80002240:	fef42623          	sw	a5,-20(s0)
80002244:	fec42783          	lw	a5,-20(s0)
80002248:	9bdd                	andi	a5,a5,-9
8000224a:	fef42623          	sw	a5,-20(s0)
8000224e:	fdc42783          	lw	a5,-36(s0)
80002252:	cf81                	beqz	a5,8000226a <SYS_SwitchPLLClock+0x46>
80002254:	fdc42703          	lw	a4,-36(s0)
80002258:	4785                	li	a5,1
8000225a:	00f71e63          	bne	a4,a5,80002276 <SYS_SwitchPLLClock+0x52>
8000225e:	fec42783          	lw	a5,-20(s0)
80002262:	0087e793          	ori	a5,a5,8
80002266:	fef42623          	sw	a5,-20(s0)
8000226a:	fec42783          	lw	a5,-20(s0)
8000226e:	0047e793          	ori	a5,a5,4
80002272:	fef42623          	sw	a5,-20(s0)
80002276:	fec42783          	lw	a5,-20(s0)
8000227a:	0207e793          	ori	a5,a5,32
8000227e:	fef42623          	sw	a5,-20(s0)
80002282:	0001                	nop
80002284:	030007b7          	lui	a5,0x3000
80002288:	fec42703          	lw	a4,-20(s0)
8000228c:	c7d8                	sw	a4,12(a5)
8000228e:	fec42783          	lw	a5,-20(s0)
80002292:	8b91                	andi	a5,a5,4
80002294:	cb89                	beqz	a5,800022a6 <SYS_SwitchPLLClock+0x82>
80002296:	0001                	nop
80002298:	355d                	jal	8000213e <SYS_IsHseReady>
8000229a:	87aa                	mv	a5,a0
8000229c:	0017c793          	xori	a5,a5,1
800022a0:	0ff7f793          	zext.b	a5,a5
800022a4:	fbf5                	bnez	a5,80002298 <SYS_SwitchPLLClock+0x74>
800022a6:	fe042423          	sw	zero,-24(s0)
800022aa:	a81d                	j	800022e0 <SYS_SwitchPLLClock+0xbc>
800022ac:	fe842783          	lw	a5,-24(s0)
800022b0:	0785                	addi	a5,a5,1
800022b2:	fef42423          	sw	a5,-24(s0)
800022b6:	fe842703          	lw	a4,-24(s0)
800022ba:	6785                	lui	a5,0x1
800022bc:	38878793          	addi	a5,a5,904 # 1388 <__stack_size+0x388>
800022c0:	02e7f063          	bgeu	a5,a4,800022e0 <SYS_SwitchPLLClock+0xbc>
800022c4:	fe042423          	sw	zero,-24(s0)
800022c8:	030007b7          	lui	a5,0x3000
800022cc:	fec42703          	lw	a4,-20(s0)
800022d0:	fdf77713          	andi	a4,a4,-33
800022d4:	c7d8                	sw	a4,12(a5)
800022d6:	030007b7          	lui	a5,0x3000
800022da:	fec42703          	lw	a4,-20(s0)
800022de:	c7d8                	sw	a4,12(a5)
800022e0:	3db5                	jal	8000215c <SYS_IsPllReady>
800022e2:	87aa                	mv	a5,a0
800022e4:	0017c793          	xori	a5,a5,1
800022e8:	0ff7f793          	zext.b	a5,a5
800022ec:	f3e1                	bnez	a5,800022ac <SYS_SwitchPLLClock+0x88>
800022ee:	fec42783          	lw	a5,-20(s0)
800022f2:	0027e793          	ori	a5,a5,2
800022f6:	fef42623          	sw	a5,-20(s0)
800022fa:	030007b7          	lui	a5,0x3000
800022fe:	fec42703          	lw	a4,-20(s0)
80002302:	c7d8                	sw	a4,12(a5)
80002304:	0001                	nop
80002306:	50b2                	lw	ra,44(sp)
80002308:	5422                	lw	s0,40(sp)
8000230a:	6145                	addi	sp,sp,48
8000230c:	8082                	ret

8000230e <SYS_SetSclkDivider>:
8000230e:	1101                	addi	sp,sp,-32
80002310:	ce22                	sw	s0,28(sp)
80002312:	1000                	addi	s0,sp,32
80002314:	87aa                	mv	a5,a0
80002316:	fef407a3          	sb	a5,-17(s0)
8000231a:	030007b7          	lui	a5,0x3000
8000231e:	47d8                	lw	a4,12(a5)
80002320:	77c1                	lui	a5,0xffff0
80002322:	0ff78793          	addi	a5,a5,255 # ffff00ff <__sdata_lma+0x7ffebffb>
80002326:	8f7d                	and	a4,a4,a5
80002328:	fef44783          	lbu	a5,-17(s0)
8000232c:	00879693          	slli	a3,a5,0x8
80002330:	fef44783          	lbu	a5,-17(s0)
80002334:	07b2                	slli	a5,a5,0xc
80002336:	8fd5                	or	a5,a5,a3
80002338:	86be                	mv	a3,a5
8000233a:	030007b7          	lui	a5,0x3000
8000233e:	8f55                	or	a4,a4,a3
80002340:	c7d8                	sw	a4,12(a5)
80002342:	0001                	nop
80002344:	4472                	lw	s0,28(sp)
80002346:	6105                	addi	sp,sp,32
80002348:	8082                	ret

8000234a <SYS_SetSclkAuto>:
8000234a:	7179                	addi	sp,sp,-48
8000234c:	d606                	sw	ra,44(sp)
8000234e:	d422                	sw	s0,40(sp)
80002350:	1800                	addi	s0,sp,48
80002352:	fca42e23          	sw	a0,-36(s0)
80002356:	fdc42783          	lw	a5,-36(s0)
8000235a:	fff78713          	addi	a4,a5,-1 # 2ffffff <FLASH_SIZE+0x1ffffff>
8000235e:	05f5e7b7          	lui	a5,0x5f5e
80002362:	10078793          	addi	a5,a5,256 # 5f5e100 <FLASH_SIZE+0x4f5e100>
80002366:	02f757b3          	divu	a5,a4,a5
8000236a:	fef407a3          	sb	a5,-17(s0)
8000236e:	fef44783          	lbu	a5,-17(s0)
80002372:	853e                	mv	a0,a5
80002374:	3f69                	jal	8000230e <SYS_SetSclkDivider>
80002376:	fef44783          	lbu	a5,-17(s0)
8000237a:	853e                	mv	a0,a5
8000237c:	50b2                	lw	ra,44(sp)
8000237e:	5422                	lw	s0,40(sp)
80002380:	6145                	addi	sp,sp,48
80002382:	8082                	ret

80002384 <UART_IsTxFifoFull>:
80002384:	1101                	addi	sp,sp,-32
80002386:	ce22                	sw	s0,28(sp)
80002388:	1000                	addi	s0,sp,32
8000238a:	fea42623          	sw	a0,-20(s0)
8000238e:	fec42783          	lw	a5,-20(s0)
80002392:	4f9c                	lw	a5,24(a5)
80002394:	0207f793          	andi	a5,a5,32
80002398:	00f037b3          	snez	a5,a5
8000239c:	0ff7f793          	zext.b	a5,a5
800023a0:	853e                	mv	a0,a5
800023a2:	4472                	lw	s0,28(sp)
800023a4:	6105                	addi	sp,sp,32
800023a6:	8082                	ret

800023a8 <UART_Init>:
800023a8:	7139                	addi	sp,sp,-64
800023aa:	de06                	sw	ra,60(sp)
800023ac:	dc22                	sw	s0,56(sp)
800023ae:	0080                	addi	s0,sp,64
800023b0:	fca42e23          	sw	a0,-36(s0)
800023b4:	fcb42c23          	sw	a1,-40(s0)
800023b8:	fcc42a23          	sw	a2,-44(s0)
800023bc:	fcd42823          	sw	a3,-48(s0)
800023c0:	fce42623          	sw	a4,-52(s0)
800023c4:	fcf42423          	sw	a5,-56(s0)
800023c8:	3539                	jal	800021d6 <SYS_GetPclkFreq>
800023ca:	fea42223          	sw	a0,-28(s0)
800023ce:	fe442703          	lw	a4,-28(s0)
800023d2:	fd842783          	lw	a5,-40(s0)
800023d6:	02f757b3          	divu	a5,a4,a5
800023da:	8391                	srli	a5,a5,0x4
800023dc:	fef42623          	sw	a5,-20(s0)
800023e0:	fec42703          	lw	a4,-20(s0)
800023e4:	fd842783          	lw	a5,-40(s0)
800023e8:	02f707b3          	mul	a5,a4,a5
800023ec:	0792                	slli	a5,a5,0x4
800023ee:	fe442703          	lw	a4,-28(s0)
800023f2:	40f707b3          	sub	a5,a4,a5
800023f6:	fef42423          	sw	a5,-24(s0)
800023fa:	fe842783          	lw	a5,-24(s0)
800023fe:	00279713          	slli	a4,a5,0x2
80002402:	fd842783          	lw	a5,-40(s0)
80002406:	8385                	srli	a5,a5,0x1
80002408:	973e                	add	a4,a4,a5
8000240a:	fd842783          	lw	a5,-40(s0)
8000240e:	02f757b3          	divu	a5,a4,a5
80002412:	fef42423          	sw	a5,-24(s0)
80002416:	fe842703          	lw	a4,-24(s0)
8000241a:	03f00793          	li	a5,63
8000241e:	00e7f963          	bgeu	a5,a4,80002430 <UART_Init+0x88>
80002422:	fec42783          	lw	a5,-20(s0)
80002426:	0785                	addi	a5,a5,1
80002428:	fef42623          	sw	a5,-20(s0)
8000242c:	fe042423          	sw	zero,-24(s0)
80002430:	fc842803          	lw	a6,-56(s0)
80002434:	fcc42783          	lw	a5,-52(s0)
80002438:	fd042703          	lw	a4,-48(s0)
8000243c:	fd442683          	lw	a3,-44(s0)
80002440:	fe842603          	lw	a2,-24(s0)
80002444:	fec42583          	lw	a1,-20(s0)
80002448:	fdc42503          	lw	a0,-36(s0)
8000244c:	2031                	jal	80002458 <UART_InitBaud>
8000244e:	0001                	nop
80002450:	50f2                	lw	ra,60(sp)
80002452:	5462                	lw	s0,56(sp)
80002454:	6121                	addi	sp,sp,64
80002456:	8082                	ret

80002458 <UART_InitBaud>:
80002458:	7179                	addi	sp,sp,-48
8000245a:	d622                	sw	s0,44(sp)
8000245c:	1800                	addi	s0,sp,48
8000245e:	fea42623          	sw	a0,-20(s0)
80002462:	feb42423          	sw	a1,-24(s0)
80002466:	fec42223          	sw	a2,-28(s0)
8000246a:	fed42023          	sw	a3,-32(s0)
8000246e:	fce42e23          	sw	a4,-36(s0)
80002472:	fcf42c23          	sw	a5,-40(s0)
80002476:	fd042a23          	sw	a6,-44(s0)
8000247a:	fec42783          	lw	a5,-20(s0)
8000247e:	0207a823          	sw	zero,48(a5)
80002482:	fec42783          	lw	a5,-20(s0)
80002486:	fe842703          	lw	a4,-24(s0)
8000248a:	d3d8                	sw	a4,36(a5)
8000248c:	fec42783          	lw	a5,-20(s0)
80002490:	fe442703          	lw	a4,-28(s0)
80002494:	d798                	sw	a4,40(a5)
80002496:	fe042703          	lw	a4,-32(s0)
8000249a:	fdc42783          	lw	a5,-36(s0)
8000249e:	8f5d                	or	a4,a4,a5
800024a0:	fd842783          	lw	a5,-40(s0)
800024a4:	8f5d                	or	a4,a4,a5
800024a6:	fd442783          	lw	a5,-44(s0)
800024aa:	8f5d                	or	a4,a4,a5
800024ac:	fec42783          	lw	a5,-20(s0)
800024b0:	d7d8                	sw	a4,44(a5)
800024b2:	fec42783          	lw	a5,-20(s0)
800024b6:	7ff00713          	li	a4,2047
800024ba:	c3f8                	sw	a4,68(a5)
800024bc:	fec42783          	lw	a5,-20(s0)
800024c0:	0207ac23          	sw	zero,56(a5)
800024c4:	fec42783          	lw	a5,-20(s0)
800024c8:	30100713          	li	a4,769
800024cc:	db98                	sw	a4,48(a5)
800024ce:	fec42783          	lw	a5,-20(s0)
800024d2:	0407a423          	sw	zero,72(a5)
800024d6:	0001                	nop
800024d8:	5432                	lw	s0,44(sp)
800024da:	6145                	addi	sp,sp,48
800024dc:	8082                	ret

800024de <UART_Send>:
800024de:	7179                	addi	sp,sp,-48
800024e0:	d606                	sw	ra,44(sp)
800024e2:	d422                	sw	s0,40(sp)
800024e4:	1800                	addi	s0,sp,48
800024e6:	fca42e23          	sw	a0,-36(s0)
800024ea:	fcb42c23          	sw	a1,-40(s0)
800024ee:	fcc42a23          	sw	a2,-44(s0)
800024f2:	fe042623          	sw	zero,-20(s0)
800024f6:	a805                	j	80002526 <UART_Send+0x48>
800024f8:	0001                	nop
800024fa:	fdc42503          	lw	a0,-36(s0)
800024fe:	3559                	jal	80002384 <UART_IsTxFifoFull>
80002500:	87aa                	mv	a5,a0
80002502:	ffe5                	bnez	a5,800024fa <UART_Send+0x1c>
80002504:	fd842783          	lw	a5,-40(s0)
80002508:	00178713          	addi	a4,a5,1
8000250c:	fce42c23          	sw	a4,-40(s0)
80002510:	0007c783          	lbu	a5,0(a5)
80002514:	873e                	mv	a4,a5
80002516:	fdc42783          	lw	a5,-36(s0)
8000251a:	c398                	sw	a4,0(a5)
8000251c:	fec42783          	lw	a5,-20(s0)
80002520:	0785                	addi	a5,a5,1
80002522:	fef42623          	sw	a5,-20(s0)
80002526:	fec42703          	lw	a4,-20(s0)
8000252a:	fd442783          	lw	a5,-44(s0)
8000252e:	fcf765e3          	bltu	a4,a5,800024f8 <UART_Send+0x1a>
80002532:	4781                	li	a5,0
80002534:	853e                	mv	a0,a5
80002536:	50b2                	lw	ra,44(sp)
80002538:	5422                	lw	s0,40(sp)
8000253a:	6145                	addi	sp,sp,48
8000253c:	8082                	ret

8000253e <UART_SendCh>:
8000253e:	1101                	addi	sp,sp,-32
80002540:	ce06                	sw	ra,28(sp)
80002542:	cc22                	sw	s0,24(sp)
80002544:	1000                	addi	s0,sp,32
80002546:	fea42623          	sw	a0,-20(s0)
8000254a:	87ae                	mv	a5,a1
8000254c:	fef405a3          	sb	a5,-21(s0)
80002550:	feb40793          	addi	a5,s0,-21
80002554:	4605                	li	a2,1
80002556:	85be                	mv	a1,a5
80002558:	fec42503          	lw	a0,-20(s0)
8000255c:	3749                	jal	800024de <UART_Send>
8000255e:	87aa                	mv	a5,a0
80002560:	853e                	mv	a0,a5
80002562:	40f2                	lw	ra,28(sp)
80002564:	4462                	lw	s0,24(sp)
80002566:	6105                	addi	sp,sp,32
80002568:	8082                	ret

8000256a <UTIL_GetMcycle>:
8000256a:	1101                	addi	sp,sp,-32
8000256c:	ce22                	sw	s0,28(sp)
8000256e:	1000                	addi	s0,sp,32
80002570:	b8002373          	csrr	t1,mcycleh
80002574:	fe642623          	sw	t1,-20(s0)
80002578:	fec42303          	lw	t1,-20(s0)
8000257c:	881a                	mv	a6,t1
8000257e:	4881                	li	a7,0
80002580:	00081793          	slli	a5,a6,0x0
80002584:	4701                	li	a4,0
80002586:	b0002873          	csrr	a6,mcycle
8000258a:	ff042423          	sw	a6,-24(s0)
8000258e:	fe842803          	lw	a6,-24(s0)
80002592:	8642                	mv	a2,a6
80002594:	4681                	li	a3,0
80002596:	00c76533          	or	a0,a4,a2
8000259a:	00d7e5b3          	or	a1,a5,a3
8000259e:	872a                	mv	a4,a0
800025a0:	87ae                	mv	a5,a1
800025a2:	853a                	mv	a0,a4
800025a4:	85be                	mv	a1,a5
800025a6:	4472                	lw	s0,28(sp)
800025a8:	6105                	addi	sp,sp,32
800025aa:	8082                	ret

800025ac <UTIL_UsToMcycle>:
800025ac:	7179                	addi	sp,sp,-48
800025ae:	d606                	sw	ra,44(sp)
800025b0:	d422                	sw	s0,40(sp)
800025b2:	d24a                	sw	s2,36(sp)
800025b4:	d04e                	sw	s3,32(sp)
800025b6:	ce52                	sw	s4,28(sp)
800025b8:	cc56                	sw	s5,24(sp)
800025ba:	ca5a                	sw	s6,20(sp)
800025bc:	c85e                	sw	s7,16(sp)
800025be:	1800                	addi	s0,sp,48
800025c0:	fca42e23          	sw	a0,-36(s0)
800025c4:	fdc42783          	lw	a5,-36(s0)
800025c8:	8a3e                	mv	s4,a5
800025ca:	4a81                	li	s5,0
800025cc:	3e45                	jal	8000217c <SYS_GetSysClkFreq>
800025ce:	872a                	mv	a4,a0
800025d0:	000f47b7          	lui	a5,0xf4
800025d4:	24078793          	addi	a5,a5,576 # f4240 <SRAM_SIZE+0xd4240>
800025d8:	02f757b3          	divu	a5,a4,a5
800025dc:	893e                	mv	s2,a5
800025de:	4981                	li	s3,0
800025e0:	032a8733          	mul	a4,s5,s2
800025e4:	034987b3          	mul	a5,s3,s4
800025e8:	97ba                	add	a5,a5,a4
800025ea:	032a0733          	mul	a4,s4,s2
800025ee:	032a3bb3          	mulhu	s7,s4,s2
800025f2:	8b3a                	mv	s6,a4
800025f4:	97de                	add	a5,a5,s7
800025f6:	8bbe                	mv	s7,a5
800025f8:	875a                	mv	a4,s6
800025fa:	87de                	mv	a5,s7
800025fc:	853a                	mv	a0,a4
800025fe:	85be                	mv	a1,a5
80002600:	50b2                	lw	ra,44(sp)
80002602:	5422                	lw	s0,40(sp)
80002604:	5912                	lw	s2,36(sp)
80002606:	5982                	lw	s3,32(sp)
80002608:	4a72                	lw	s4,28(sp)
8000260a:	4ae2                	lw	s5,24(sp)
8000260c:	4b52                	lw	s6,20(sp)
8000260e:	4bc2                	lw	s7,16(sp)
80002610:	6145                	addi	sp,sp,48
80002612:	8082                	ret

80002614 <UTIL_IdleUs>:
80002614:	7179                	addi	sp,sp,-48
80002616:	d606                	sw	ra,44(sp)
80002618:	d422                	sw	s0,40(sp)
8000261a:	d24a                	sw	s2,36(sp)
8000261c:	d04e                	sw	s3,32(sp)
8000261e:	1800                	addi	s0,sp,48
80002620:	fca42e23          	sw	a0,-36(s0)
80002624:	3799                	jal	8000256a <UTIL_GetMcycle>
80002626:	892a                	mv	s2,a0
80002628:	89ae                	mv	s3,a1
8000262a:	fdc42503          	lw	a0,-36(s0)
8000262e:	3fbd                	jal	800025ac <UTIL_UsToMcycle>
80002630:	862a                	mv	a2,a0
80002632:	86ae                	mv	a3,a1
80002634:	00c90733          	add	a4,s2,a2
80002638:	85ba                	mv	a1,a4
8000263a:	0125b5b3          	sltu	a1,a1,s2
8000263e:	00d987b3          	add	a5,s3,a3
80002642:	00f586b3          	add	a3,a1,a5
80002646:	87b6                	mv	a5,a3
80002648:	fee42423          	sw	a4,-24(s0)
8000264c:	fef42623          	sw	a5,-20(s0)
80002650:	0001                	nop
80002652:	3f21                	jal	8000256a <UTIL_GetMcycle>
80002654:	862a                	mv	a2,a0
80002656:	86ae                	mv	a3,a1
80002658:	fe842703          	lw	a4,-24(s0)
8000265c:	fec42783          	lw	a5,-20(s0)
80002660:	853e                	mv	a0,a5
80002662:	85b6                	mv	a1,a3
80002664:	fea5e7e3          	bltu	a1,a0,80002652 <UTIL_IdleUs+0x3e>
80002668:	853e                	mv	a0,a5
8000266a:	85b6                	mv	a1,a3
8000266c:	00b51563          	bne	a0,a1,80002676 <UTIL_IdleUs+0x62>
80002670:	87b2                	mv	a5,a2
80002672:	fee7e0e3          	bltu	a5,a4,80002652 <UTIL_IdleUs+0x3e>
80002676:	0001                	nop
80002678:	50b2                	lw	ra,44(sp)
8000267a:	5422                	lw	s0,40(sp)
8000267c:	5912                	lw	s2,36(sp)
8000267e:	5982                	lw	s3,32(sp)
80002680:	6145                	addi	sp,sp,48
80002682:	8082                	ret

80002684 <putchar>:
80002684:	1101                	addi	sp,sp,-32
80002686:	ce06                	sw	ra,28(sp)
80002688:	cc22                	sw	s0,24(sp)
8000268a:	1000                	addi	s0,sp,32
8000268c:	fea42623          	sw	a0,-20(s0)
80002690:	fec42783          	lw	a5,-20(s0)
80002694:	0ff7f793          	zext.b	a5,a5
80002698:	85be                	mv	a1,a5
8000269a:	40025537          	lui	a0,0x40025
8000269e:	3545                	jal	8000253e <UART_SendCh>
800026a0:	87aa                	mv	a5,a0
800026a2:	853e                	mv	a0,a5
800026a4:	40f2                	lw	ra,28(sp)
800026a6:	4462                	lw	s0,24(sp)
800026a8:	6105                	addi	sp,sp,32
800026aa:	8082                	ret

800026ac <SYS_SetPLLFreq>:
800026ac:	1101                	addi	sp,sp,-32
800026ae:	ce22                	sw	s0,28(sp)
800026b0:	1000                	addi	s0,sp,32
800026b2:	fea42623          	sw	a0,-20(s0)
800026b6:	200007b7          	lui	a5,0x20000
800026ba:	7e878793          	addi	a5,a5,2024 # 200007e8 <SYS_Clocks>
800026be:	fec42703          	lw	a4,-20(s0)
800026c2:	c798                	sw	a4,8(a5)
800026c4:	0001                	nop
800026c6:	4472                	lw	s0,28(sp)
800026c8:	6105                	addi	sp,sp,32
800026ca:	8082                	ret

800026cc <SYS_GetHSEFreq>:
800026cc:	1141                	addi	sp,sp,-16
800026ce:	c622                	sw	s0,12(sp)
800026d0:	0800                	addi	s0,sp,16
800026d2:	200007b7          	lui	a5,0x20000
800026d6:	7e878793          	addi	a5,a5,2024 # 200007e8 <SYS_Clocks>
800026da:	43dc                	lw	a5,4(a5)
800026dc:	853e                	mv	a0,a5
800026de:	4432                	lw	s0,12(sp)
800026e0:	0141                	addi	sp,sp,16
800026e2:	8082                	ret

800026e4 <SYS_EnableAHBClock>:
800026e4:	1101                	addi	sp,sp,-32
800026e6:	ce22                	sw	s0,28(sp)
800026e8:	1000                	addi	s0,sp,32
800026ea:	fea42623          	sw	a0,-20(s0)
800026ee:	030007b7          	lui	a5,0x3000
800026f2:	5bb4                	lw	a3,112(a5)
800026f4:	030007b7          	lui	a5,0x3000
800026f8:	fec42703          	lw	a4,-20(s0)
800026fc:	8f55                	or	a4,a4,a3
800026fe:	dbb8                	sw	a4,112(a5)
80002700:	0001                	nop
80002702:	4472                	lw	s0,28(sp)
80002704:	6105                	addi	sp,sp,32
80002706:	8082                	ret

80002708 <SYS_EnableAPBClock>:
80002708:	1101                	addi	sp,sp,-32
8000270a:	ce22                	sw	s0,28(sp)
8000270c:	1000                	addi	s0,sp,32
8000270e:	fea42623          	sw	a0,-20(s0)
80002712:	030007b7          	lui	a5,0x3000
80002716:	53b4                	lw	a3,96(a5)
80002718:	030007b7          	lui	a5,0x3000
8000271c:	fec42703          	lw	a4,-20(s0)
80002720:	8f55                	or	a4,a4,a3
80002722:	d3b8                	sw	a4,96(a5)
80002724:	0001                	nop
80002726:	4472                	lw	s0,28(sp)
80002728:	6105                	addi	sp,sp,32
8000272a:	8082                	ret

8000272c <INT_EnableIntGlobal>:
8000272c:	1101                	addi	sp,sp,-32
8000272e:	ce22                	sw	s0,28(sp)
80002730:	1000                	addi	s0,sp,32
80002732:	300467f3          	csrrsi	a5,mstatus,8
80002736:	fef42623          	sw	a5,-20(s0)
8000273a:	0001                	nop
8000273c:	4472                	lw	s0,28(sp)
8000273e:	6105                	addi	sp,sp,32
80002740:	8082                	ret

80002742 <INT_EnableIntExternal>:
80002742:	1101                	addi	sp,sp,-32
80002744:	ce22                	sw	s0,28(sp)
80002746:	1000                	addi	s0,sp,32
80002748:	6785                	lui	a5,0x1
8000274a:	80078793          	addi	a5,a5,-2048 # 800 <__sdata_size+0x7f8>
8000274e:	3047a7f3          	csrrs	a5,mie,a5
80002752:	fef42623          	sw	a5,-20(s0)
80002756:	0001                	nop
80002758:	4472                	lw	s0,28(sp)
8000275a:	6105                	addi	sp,sp,32
8000275c:	8082                	ret

8000275e <FCB_IsActive>:
8000275e:	1141                	addi	sp,sp,-16
80002760:	c622                	sw	s0,12(sp)
80002762:	0800                	addi	s0,sp,16
80002764:	400107b7          	lui	a5,0x40010
80002768:	4b9c                	lw	a5,16(a5)
8000276a:	8b89                	andi	a5,a5,2
8000276c:	00f037b3          	snez	a5,a5
80002770:	0ff7f793          	zext.b	a5,a5
80002774:	853e                	mv	a0,a5
80002776:	4432                	lw	s0,12(sp)
80002778:	0141                	addi	sp,sp,16
8000277a:	8082                	ret

8000277c <FCB_Activate>:
8000277c:	1141                	addi	sp,sp,-16
8000277e:	c622                	sw	s0,12(sp)
80002780:	0800                	addi	s0,sp,16
80002782:	400107b7          	lui	a5,0x40010
80002786:	4398                	lw	a4,0(a5)
80002788:	400107b7          	lui	a5,0x40010
8000278c:	01076713          	ori	a4,a4,16
80002790:	c398                	sw	a4,0(a5)
80002792:	0001                	nop
80002794:	4432                	lw	s0,12(sp)
80002796:	0141                	addi	sp,sp,16
80002798:	8082                	ret

8000279a <GPIO_SetOutput>:
8000279a:	1101                	addi	sp,sp,-32
8000279c:	ce22                	sw	s0,28(sp)
8000279e:	1000                	addi	s0,sp,32
800027a0:	fea42623          	sw	a0,-20(s0)
800027a4:	87ae                	mv	a5,a1
800027a6:	fef405a3          	sb	a5,-21(s0)
800027aa:	fec42783          	lw	a5,-20(s0)
800027ae:	4007a703          	lw	a4,1024(a5) # 40010400 <__stack_pointer$+0x1fff0400>
800027b2:	feb44783          	lbu	a5,-21(s0)
800027b6:	8f5d                	or	a4,a4,a5
800027b8:	fec42783          	lw	a5,-20(s0)
800027bc:	40e7a023          	sw	a4,1024(a5)
800027c0:	0001                	nop
800027c2:	4472                	lw	s0,28(sp)
800027c4:	6105                	addi	sp,sp,32
800027c6:	8082                	ret

800027c8 <GPIO_SetInput>:
800027c8:	1101                	addi	sp,sp,-32
800027ca:	ce22                	sw	s0,28(sp)
800027cc:	1000                	addi	s0,sp,32
800027ce:	fea42623          	sw	a0,-20(s0)
800027d2:	87ae                	mv	a5,a1
800027d4:	fef405a3          	sb	a5,-21(s0)
800027d8:	fec42783          	lw	a5,-20(s0)
800027dc:	4007a783          	lw	a5,1024(a5)
800027e0:	feb44703          	lbu	a4,-21(s0)
800027e4:	fff74713          	not	a4,a4
800027e8:	8f7d                	and	a4,a4,a5
800027ea:	fec42783          	lw	a5,-20(s0)
800027ee:	40e7a023          	sw	a4,1024(a5)
800027f2:	0001                	nop
800027f4:	4472                	lw	s0,28(sp)
800027f6:	6105                	addi	sp,sp,32
800027f8:	8082                	ret

800027fa <GPIO_SetHigh>:
800027fa:	1101                	addi	sp,sp,-32
800027fc:	ce22                	sw	s0,28(sp)
800027fe:	1000                	addi	s0,sp,32
80002800:	fea42623          	sw	a0,-20(s0)
80002804:	87ae                	mv	a5,a1
80002806:	fef405a3          	sb	a5,-21(s0)
8000280a:	feb44783          	lbu	a5,-21(s0)
8000280e:	fec42703          	lw	a4,-20(s0)
80002812:	078a                	slli	a5,a5,0x2
80002814:	97ba                	add	a5,a5,a4
80002816:	0ff00713          	li	a4,255
8000281a:	c398                	sw	a4,0(a5)
8000281c:	0001                	nop
8000281e:	4472                	lw	s0,28(sp)
80002820:	6105                	addi	sp,sp,32
80002822:	8082                	ret

80002824 <GPIO_EnableInt>:
80002824:	1101                	addi	sp,sp,-32
80002826:	ce22                	sw	s0,28(sp)
80002828:	1000                	addi	s0,sp,32
8000282a:	fea42623          	sw	a0,-20(s0)
8000282e:	87ae                	mv	a5,a1
80002830:	fef405a3          	sb	a5,-21(s0)
80002834:	fec42783          	lw	a5,-20(s0)
80002838:	4107a703          	lw	a4,1040(a5)
8000283c:	feb44783          	lbu	a5,-21(s0)
80002840:	8f5d                	or	a4,a4,a5
80002842:	fec42783          	lw	a5,-20(s0)
80002846:	40e7a823          	sw	a4,1040(a5)
8000284a:	0001                	nop
8000284c:	4472                	lw	s0,28(sp)
8000284e:	6105                	addi	sp,sp,32
80002850:	8082                	ret

80002852 <board_hse_source>:
80002852:	1141                	addi	sp,sp,-16
80002854:	c622                	sw	s0,12(sp)
80002856:	0800                	addi	s0,sp,16
80002858:	4781                	li	a5,0
8000285a:	853e                	mv	a0,a5
8000285c:	4432                	lw	s0,12(sp)
8000285e:	0141                	addi	sp,sp,16
80002860:	8082                	ret

80002862 <board_pll_clkin_freq>:
80002862:	1141                	addi	sp,sp,-16
80002864:	c606                	sw	ra,12(sp)
80002866:	c422                	sw	s0,8(sp)
80002868:	0800                	addi	s0,sp,16
8000286a:	358d                	jal	800026cc <SYS_GetHSEFreq>
8000286c:	87aa                	mv	a5,a0
8000286e:	853e                	mv	a0,a5
80002870:	40b2                	lw	ra,12(sp)
80002872:	4422                	lw	s0,8(sp)
80002874:	0141                	addi	sp,sp,16
80002876:	8082                	ret

80002878 <board_init_mac>:
80002878:	1141                	addi	sp,sp,-16
8000287a:	c622                	sw	s0,12(sp)
8000287c:	0800                	addi	s0,sp,16
8000287e:	0001                	nop
80002880:	4432                	lw	s0,12(sp)
80002882:	0141                	addi	sp,sp,16
80002884:	8082                	ret

80002886 <board_init>:
80002886:	1101                	addi	sp,sp,-32
80002888:	ce06                	sw	ra,28(sp)
8000288a:	cc22                	sw	s0,24(sp)
8000288c:	1000                	addi	s0,sp,32
8000288e:	4505                	li	a0,1
80002890:	3d91                	jal	800026e4 <SYS_EnableAHBClock>
80002892:	d24ff0ef          	jal	ra,80001db6 <DMAC_Init>
80002896:	00000793          	li	a5,0
8000289a:	cb95                	beqz	a5,800028ce <board_init+0x48>
8000289c:	05f5e7b7          	lui	a5,0x5f5e
800028a0:	10078793          	addi	a5,a5,256 # 5f5e100 <FLASH_SIZE+0x4f5e100>
800028a4:	fef42623          	sw	a5,-20(s0)
800028a8:	4505                	li	a0,1
800028aa:	3db9                	jal	80002708 <SYS_EnableAPBClock>
800028ac:	3d4d                	jal	8000275e <FCB_IsActive>
800028ae:	87aa                	mv	a5,a0
800028b0:	cb99                	beqz	a5,800028c6 <board_init+0x40>
800028b2:	3f45                	jal	80002862 <board_pll_clkin_freq>
800028b4:	87aa                	mv	a5,a0
800028b6:	853e                	mv	a0,a5
800028b8:	00000097          	auipc	ra,0x0
800028bc:	000000e7          	jalr	zero # 0 <__bss_size>
800028c0:	fea42623          	sw	a0,-20(s0)
800028c4:	a011                	j	800028c8 <board_init+0x42>
800028c6:	3d5d                	jal	8000277c <FCB_Activate>
800028c8:	fec42503          	lw	a0,-20(s0)
800028cc:	33c5                	jal	800026ac <SYS_SetPLLFreq>
800028ce:	3751                	jal	80002852 <board_hse_source>
800028d0:	87aa                	mv	a5,a0
800028d2:	853e                	mv	a0,a5
800028d4:	951ff0ef          	jal	ra,80002224 <SYS_SwitchPLLClock>
800028d8:	f00ff0ef          	jal	ra,80001fd8 <INT_Init>
800028dc:	3d81                	jal	8000272c <INT_EnableIntGlobal>
800028de:	3595                	jal	80002742 <INT_EnableIntExternal>
800028e0:	10000513          	li	a0,256
800028e4:	3515                	jal	80002708 <SYS_EnableAPBClock>
800028e6:	45c1                	li	a1,16
800028e8:	40018537          	lui	a0,0x40018
800028ec:	357d                	jal	8000279a <GPIO_SetOutput>
800028ee:	45c1                	li	a1,16
800028f0:	40018537          	lui	a0,0x40018
800028f4:	3719                	jal	800027fa <GPIO_SetHigh>
800028f6:	10000513          	li	a0,256
800028fa:	3539                	jal	80002708 <SYS_EnableAPBClock>
800028fc:	45b9                	li	a1,14
800028fe:	40018537          	lui	a0,0x40018
80002902:	3d61                	jal	8000279a <GPIO_SetOutput>
80002904:	45b9                	li	a1,14
80002906:	40018537          	lui	a0,0x40018
8000290a:	3dc5                	jal	800027fa <GPIO_SetHigh>
8000290c:	40000513          	li	a0,1024
80002910:	3be5                	jal	80002708 <SYS_EnableAPBClock>
80002912:	45d1                	li	a1,20
80002914:	4001a537          	lui	a0,0x4001a
80002918:	3d45                	jal	800027c8 <GPIO_SetInput>
8000291a:	45d1                	li	a1,20
8000291c:	4001a537          	lui	a0,0x4001a
80002920:	3711                	jal	80002824 <GPIO_EnableInt>
80002922:	4609                	li	a2,2
80002924:	45d1                	li	a1,20
80002926:	4001a537          	lui	a0,0x4001a
8000292a:	ce4ff0ef          	jal	ra,80001e0e <GPIO_IntConfig>
8000292e:	030007b7          	lui	a5,0x3000
80002932:	53bc                	lw	a5,96(a5)
80002934:	fef42423          	sw	a5,-24(s0)
80002938:	030007b7          	lui	a5,0x3000
8000293c:	fe842703          	lw	a4,-24(s0)
80002940:	40076713          	ori	a4,a4,1024
80002944:	d3b8                	sw	a4,96(a5)
80002946:	4001a7b7          	lui	a5,0x4001a
8000294a:	4207a703          	lw	a4,1056(a5) # 4001a420 <__stack_pointer$+0x1fffa420>
8000294e:	4001a7b7          	lui	a5,0x4001a
80002952:	00276713          	ori	a4,a4,2
80002956:	42e7a023          	sw	a4,1056(a5) # 4001a420 <__stack_pointer$+0x1fffa420>
8000295a:	030007b7          	lui	a5,0x3000
8000295e:	fe842703          	lw	a4,-24(s0)
80002962:	d3b8                	sw	a4,96(a5)
80002964:	030007b7          	lui	a5,0x3000
80002968:	53bc                	lw	a5,96(a5)
8000296a:	fef42223          	sw	a5,-28(s0)
8000296e:	030007b7          	lui	a5,0x3000
80002972:	fe442683          	lw	a3,-28(s0)
80002976:	6705                	lui	a4,0x1
80002978:	80070713          	addi	a4,a4,-2048 # 800 <__sdata_size+0x7f8>
8000297c:	8f55                	or	a4,a4,a3
8000297e:	d3b8                	sw	a4,96(a5)
80002980:	4001b7b7          	lui	a5,0x4001b
80002984:	4207a703          	lw	a4,1056(a5) # 4001b420 <__stack_pointer$+0x1fffb420>
80002988:	4001b7b7          	lui	a5,0x4001b
8000298c:	04076713          	ori	a4,a4,64
80002990:	42e7a023          	sw	a4,1056(a5) # 4001b420 <__stack_pointer$+0x1fffb420>
80002994:	030007b7          	lui	a5,0x3000
80002998:	fe442703          	lw	a4,-28(s0)
8000299c:	d3b8                	sw	a4,96(a5)
8000299e:	200017b7          	lui	a5,0x20001
800029a2:	40025737          	lui	a4,0x40025
800029a6:	a8e7a223          	sw	a4,-1404(a5) # 20000a84 <MSG_UART>
800029aa:	00200537          	lui	a0,0x200
800029ae:	3ba9                	jal	80002708 <SYS_EnableAPBClock>
800029b0:	47c1                	li	a5,16
800029b2:	4701                	li	a4,0
800029b4:	4681                	li	a3,0
800029b6:	06000613          	li	a2,96
800029ba:	65f1                	lui	a1,0x1c
800029bc:	20058593          	addi	a1,a1,512 # 1c200 <ROM_BASE+0xc200>
800029c0:	40025537          	lui	a0,0x40025
800029c4:	9e5ff0ef          	jal	ra,800023a8 <UART_Init>
800029c8:	3d45                	jal	80002878 <board_init_mac>
800029ca:	fb2ff0ef          	jal	ra,8000217c <SYS_GetSysClkFreq>
800029ce:	87aa                	mv	a5,a0
800029d0:	853e                	mv	a0,a5
800029d2:	215000ef          	jal	ra,800033e6 <__floatunsidf>
800029d6:	872a                	mv	a4,a0
800029d8:	87ae                	mv	a5,a1
800029da:	200016b7          	lui	a3,0x20001
800029de:	9386a603          	lw	a2,-1736(a3) # 20000938 <SYS_Clocks+0x150>
800029e2:	93c6a683          	lw	a3,-1732(a3)
800029e6:	853a                	mv	a0,a4
800029e8:	85be                	mv	a1,a5
800029ea:	2641                	jal	80002d6a <__divdf3>
800029ec:	872a                	mv	a4,a0
800029ee:	87ae                	mv	a5,a1
800029f0:	863a                	mv	a2,a4
800029f2:	86be                	mv	a3,a5
800029f4:	6721                	lui	a4,0x8
800029f6:	200017b7          	lui	a5,0x20001
800029fa:	91078513          	addi	a0,a5,-1776 # 20000910 <SYS_Clocks+0x128>
800029fe:	b0eff0ef          	jal	ra,80001d0c <printf>
80002a02:	0001                	nop
80002a04:	40f2                	lw	ra,28(sp)
80002a06:	4462                	lw	s0,24(sp)
80002a08:	6105                	addi	sp,sp,32
80002a0a:	8082                	ret

80002a0c <__udivdi3>:
80002a0c:	832a                	mv	t1,a0
80002a0e:	88ae                	mv	a7,a1
80002a10:	8732                	mv	a4,a2
80002a12:	882a                	mv	a6,a0
80002a14:	87ae                	mv	a5,a1
80002a16:	20069663          	bnez	a3,80002c22 <__udivdi3+0x216>
80002a1a:	200015b7          	lui	a1,0x20001
80002a1e:	97c58593          	addi	a1,a1,-1668 # 2000097c <__clz_tab>
80002a22:	0cc8f163          	bgeu	a7,a2,80002ae4 <__udivdi3+0xd8>
80002a26:	66c1                	lui	a3,0x10
80002a28:	0ad67763          	bgeu	a2,a3,80002ad6 <__udivdi3+0xca>
80002a2c:	10063693          	sltiu	a3,a2,256
80002a30:	0016c693          	xori	a3,a3,1
80002a34:	068e                	slli	a3,a3,0x3
80002a36:	00d65533          	srl	a0,a2,a3
80002a3a:	95aa                	add	a1,a1,a0
80002a3c:	0005c583          	lbu	a1,0(a1)
80002a40:	02000513          	li	a0,32
80002a44:	96ae                	add	a3,a3,a1
80002a46:	40d505b3          	sub	a1,a0,a3
80002a4a:	00d50b63          	beq	a0,a3,80002a60 <__udivdi3+0x54>
80002a4e:	00b897b3          	sll	a5,a7,a1
80002a52:	00d356b3          	srl	a3,t1,a3
80002a56:	00b61733          	sll	a4,a2,a1
80002a5a:	8fd5                	or	a5,a5,a3
80002a5c:	00b31833          	sll	a6,t1,a1
80002a60:	01075593          	srli	a1,a4,0x10
80002a64:	02b7d333          	divu	t1,a5,a1
80002a68:	01071613          	slli	a2,a4,0x10
80002a6c:	8241                	srli	a2,a2,0x10
80002a6e:	02b7f7b3          	remu	a5,a5,a1
80002a72:	851a                	mv	a0,t1
80002a74:	026608b3          	mul	a7,a2,t1
80002a78:	01079693          	slli	a3,a5,0x10
80002a7c:	01085793          	srli	a5,a6,0x10
80002a80:	8fd5                	or	a5,a5,a3
80002a82:	0117fc63          	bgeu	a5,a7,80002a9a <__udivdi3+0x8e>
80002a86:	97ba                	add	a5,a5,a4
80002a88:	fff30513          	addi	a0,t1,-1
80002a8c:	00e7e763          	bltu	a5,a4,80002a9a <__udivdi3+0x8e>
80002a90:	0117f563          	bgeu	a5,a7,80002a9a <__udivdi3+0x8e>
80002a94:	ffe30513          	addi	a0,t1,-2
80002a98:	97ba                	add	a5,a5,a4
80002a9a:	411787b3          	sub	a5,a5,a7
80002a9e:	02b7d8b3          	divu	a7,a5,a1
80002aa2:	0842                	slli	a6,a6,0x10
80002aa4:	01085813          	srli	a6,a6,0x10
80002aa8:	02b7f7b3          	remu	a5,a5,a1
80002aac:	031606b3          	mul	a3,a2,a7
80002ab0:	07c2                	slli	a5,a5,0x10
80002ab2:	00f86833          	or	a6,a6,a5
80002ab6:	87c6                	mv	a5,a7
80002ab8:	00d87b63          	bgeu	a6,a3,80002ace <__udivdi3+0xc2>
80002abc:	983a                	add	a6,a6,a4
80002abe:	fff88793          	addi	a5,a7,-1
80002ac2:	00e86663          	bltu	a6,a4,80002ace <__udivdi3+0xc2>
80002ac6:	00d87463          	bgeu	a6,a3,80002ace <__udivdi3+0xc2>
80002aca:	ffe88793          	addi	a5,a7,-2
80002ace:	0542                	slli	a0,a0,0x10
80002ad0:	8d5d                	or	a0,a0,a5
80002ad2:	4581                	li	a1,0
80002ad4:	8082                	ret
80002ad6:	01000537          	lui	a0,0x1000
80002ada:	46c1                	li	a3,16
80002adc:	f4a66de3          	bltu	a2,a0,80002a36 <__udivdi3+0x2a>
80002ae0:	46e1                	li	a3,24
80002ae2:	bf91                	j	80002a36 <__udivdi3+0x2a>
80002ae4:	e211                	bnez	a2,80002ae8 <__udivdi3+0xdc>
80002ae6:	9002                	ebreak
80002ae8:	67c1                	lui	a5,0x10
80002aea:	08f67f63          	bgeu	a2,a5,80002b88 <__udivdi3+0x17c>
80002aee:	10063693          	sltiu	a3,a2,256
80002af2:	0016c693          	xori	a3,a3,1
80002af6:	068e                	slli	a3,a3,0x3
80002af8:	00d657b3          	srl	a5,a2,a3
80002afc:	95be                	add	a1,a1,a5
80002afe:	0005c783          	lbu	a5,0(a1)
80002b02:	97b6                	add	a5,a5,a3
80002b04:	02000693          	li	a3,32
80002b08:	40f685b3          	sub	a1,a3,a5
80002b0c:	08f69563          	bne	a3,a5,80002b96 <__udivdi3+0x18a>
80002b10:	40c887b3          	sub	a5,a7,a2
80002b14:	4585                	li	a1,1
80002b16:	01075893          	srli	a7,a4,0x10
80002b1a:	0317de33          	divu	t3,a5,a7
80002b1e:	01071613          	slli	a2,a4,0x10
80002b22:	8241                	srli	a2,a2,0x10
80002b24:	01085693          	srli	a3,a6,0x10
80002b28:	0317f7b3          	remu	a5,a5,a7
80002b2c:	8572                	mv	a0,t3
80002b2e:	03c60333          	mul	t1,a2,t3
80002b32:	07c2                	slli	a5,a5,0x10
80002b34:	8fd5                	or	a5,a5,a3
80002b36:	0067fc63          	bgeu	a5,t1,80002b4e <__udivdi3+0x142>
80002b3a:	97ba                	add	a5,a5,a4
80002b3c:	fffe0513          	addi	a0,t3,-1
80002b40:	00e7e763          	bltu	a5,a4,80002b4e <__udivdi3+0x142>
80002b44:	0067f563          	bgeu	a5,t1,80002b4e <__udivdi3+0x142>
80002b48:	ffee0513          	addi	a0,t3,-2
80002b4c:	97ba                	add	a5,a5,a4
80002b4e:	406787b3          	sub	a5,a5,t1
80002b52:	0317d333          	divu	t1,a5,a7
80002b56:	0842                	slli	a6,a6,0x10
80002b58:	01085813          	srli	a6,a6,0x10
80002b5c:	0317f7b3          	remu	a5,a5,a7
80002b60:	026606b3          	mul	a3,a2,t1
80002b64:	07c2                	slli	a5,a5,0x10
80002b66:	00f86833          	or	a6,a6,a5
80002b6a:	879a                	mv	a5,t1
80002b6c:	00d87b63          	bgeu	a6,a3,80002b82 <__udivdi3+0x176>
80002b70:	983a                	add	a6,a6,a4
80002b72:	fff30793          	addi	a5,t1,-1
80002b76:	00e86663          	bltu	a6,a4,80002b82 <__udivdi3+0x176>
80002b7a:	00d87463          	bgeu	a6,a3,80002b82 <__udivdi3+0x176>
80002b7e:	ffe30793          	addi	a5,t1,-2
80002b82:	0542                	slli	a0,a0,0x10
80002b84:	8d5d                	or	a0,a0,a5
80002b86:	8082                	ret
80002b88:	010007b7          	lui	a5,0x1000
80002b8c:	46c1                	li	a3,16
80002b8e:	f6f665e3          	bltu	a2,a5,80002af8 <__udivdi3+0xec>
80002b92:	46e1                	li	a3,24
80002b94:	b795                	j	80002af8 <__udivdi3+0xec>
80002b96:	00b61733          	sll	a4,a2,a1
80002b9a:	00f8d6b3          	srl	a3,a7,a5
80002b9e:	01075513          	srli	a0,a4,0x10
80002ba2:	00f357b3          	srl	a5,t1,a5
80002ba6:	00b31833          	sll	a6,t1,a1
80002baa:	02a6d333          	divu	t1,a3,a0
80002bae:	01071613          	slli	a2,a4,0x10
80002bb2:	00b898b3          	sll	a7,a7,a1
80002bb6:	8241                	srli	a2,a2,0x10
80002bb8:	0117e7b3          	or	a5,a5,a7
80002bbc:	02a6f6b3          	remu	a3,a3,a0
80002bc0:	026608b3          	mul	a7,a2,t1
80002bc4:	01069593          	slli	a1,a3,0x10
80002bc8:	0107d693          	srli	a3,a5,0x10
80002bcc:	8ecd                	or	a3,a3,a1
80002bce:	859a                	mv	a1,t1
80002bd0:	0116fc63          	bgeu	a3,a7,80002be8 <__udivdi3+0x1dc>
80002bd4:	96ba                	add	a3,a3,a4
80002bd6:	fff30593          	addi	a1,t1,-1
80002bda:	00e6e763          	bltu	a3,a4,80002be8 <__udivdi3+0x1dc>
80002bde:	0116f563          	bgeu	a3,a7,80002be8 <__udivdi3+0x1dc>
80002be2:	ffe30593          	addi	a1,t1,-2
80002be6:	96ba                	add	a3,a3,a4
80002be8:	411686b3          	sub	a3,a3,a7
80002bec:	02a6d8b3          	divu	a7,a3,a0
80002bf0:	07c2                	slli	a5,a5,0x10
80002bf2:	83c1                	srli	a5,a5,0x10
80002bf4:	02a6f6b3          	remu	a3,a3,a0
80002bf8:	03160633          	mul	a2,a2,a7
80002bfc:	06c2                	slli	a3,a3,0x10
80002bfe:	8fd5                	or	a5,a5,a3
80002c00:	86c6                	mv	a3,a7
80002c02:	00c7fc63          	bgeu	a5,a2,80002c1a <__udivdi3+0x20e>
80002c06:	97ba                	add	a5,a5,a4
80002c08:	fff88693          	addi	a3,a7,-1
80002c0c:	00e7e763          	bltu	a5,a4,80002c1a <__udivdi3+0x20e>
80002c10:	00c7f563          	bgeu	a5,a2,80002c1a <__udivdi3+0x20e>
80002c14:	ffe88693          	addi	a3,a7,-2
80002c18:	97ba                	add	a5,a5,a4
80002c1a:	05c2                	slli	a1,a1,0x10
80002c1c:	8f91                	sub	a5,a5,a2
80002c1e:	8dd5                	or	a1,a1,a3
80002c20:	bddd                	j	80002b16 <__udivdi3+0x10a>
80002c22:	14d5e163          	bltu	a1,a3,80002d64 <__udivdi3+0x358>
80002c26:	67c1                	lui	a5,0x10
80002c28:	02f6ff63          	bgeu	a3,a5,80002c66 <__udivdi3+0x25a>
80002c2c:	1006b713          	sltiu	a4,a3,256
80002c30:	00174713          	xori	a4,a4,1
80002c34:	070e                	slli	a4,a4,0x3
80002c36:	200017b7          	lui	a5,0x20001
80002c3a:	00e6d5b3          	srl	a1,a3,a4
80002c3e:	97c78793          	addi	a5,a5,-1668 # 2000097c <__clz_tab>
80002c42:	97ae                	add	a5,a5,a1
80002c44:	0007c783          	lbu	a5,0(a5)
80002c48:	97ba                	add	a5,a5,a4
80002c4a:	02000713          	li	a4,32
80002c4e:	40f705b3          	sub	a1,a4,a5
80002c52:	02f71163          	bne	a4,a5,80002c74 <__udivdi3+0x268>
80002c56:	4505                	li	a0,1
80002c58:	e716eee3          	bltu	a3,a7,80002ad4 <__udivdi3+0xc8>
80002c5c:	00c33533          	sltu	a0,t1,a2
80002c60:	00154513          	xori	a0,a0,1
80002c64:	8082                	ret
80002c66:	010007b7          	lui	a5,0x1000
80002c6a:	4741                	li	a4,16
80002c6c:	fcf6e5e3          	bltu	a3,a5,80002c36 <__udivdi3+0x22a>
80002c70:	4761                	li	a4,24
80002c72:	b7d1                	j	80002c36 <__udivdi3+0x22a>
80002c74:	00f65733          	srl	a4,a2,a5
80002c78:	00b696b3          	sll	a3,a3,a1
80002c7c:	8ed9                	or	a3,a3,a4
80002c7e:	00f8d733          	srl	a4,a7,a5
80002c82:	00b898b3          	sll	a7,a7,a1
80002c86:	00f357b3          	srl	a5,t1,a5
80002c8a:	0117e7b3          	or	a5,a5,a7
80002c8e:	0106d893          	srli	a7,a3,0x10
80002c92:	03175eb3          	divu	t4,a4,a7
80002c96:	01069813          	slli	a6,a3,0x10
80002c9a:	01085813          	srli	a6,a6,0x10
80002c9e:	00b61633          	sll	a2,a2,a1
80002ca2:	03177733          	remu	a4,a4,a7
80002ca6:	03d80e33          	mul	t3,a6,t4
80002caa:	01071513          	slli	a0,a4,0x10
80002cae:	0107d713          	srli	a4,a5,0x10
80002cb2:	8f49                	or	a4,a4,a0
80002cb4:	8576                	mv	a0,t4
80002cb6:	01c77c63          	bgeu	a4,t3,80002cce <__udivdi3+0x2c2>
80002cba:	9736                	add	a4,a4,a3
80002cbc:	fffe8513          	addi	a0,t4,-1
80002cc0:	00d76763          	bltu	a4,a3,80002cce <__udivdi3+0x2c2>
80002cc4:	01c77563          	bgeu	a4,t3,80002cce <__udivdi3+0x2c2>
80002cc8:	ffee8513          	addi	a0,t4,-2
80002ccc:	9736                	add	a4,a4,a3
80002cce:	41c70733          	sub	a4,a4,t3
80002cd2:	03175e33          	divu	t3,a4,a7
80002cd6:	07c2                	slli	a5,a5,0x10
80002cd8:	83c1                	srli	a5,a5,0x10
80002cda:	03177733          	remu	a4,a4,a7
80002cde:	03c80833          	mul	a6,a6,t3
80002ce2:	0742                	slli	a4,a4,0x10
80002ce4:	8fd9                	or	a5,a5,a4
80002ce6:	8772                	mv	a4,t3
80002ce8:	0107fc63          	bgeu	a5,a6,80002d00 <__udivdi3+0x2f4>
80002cec:	97b6                	add	a5,a5,a3
80002cee:	fffe0713          	addi	a4,t3,-1
80002cf2:	00d7e763          	bltu	a5,a3,80002d00 <__udivdi3+0x2f4>
80002cf6:	0107f563          	bgeu	a5,a6,80002d00 <__udivdi3+0x2f4>
80002cfa:	ffee0713          	addi	a4,t3,-2
80002cfe:	97b6                	add	a5,a5,a3
80002d00:	0542                	slli	a0,a0,0x10
80002d02:	6e41                	lui	t3,0x10
80002d04:	8d59                	or	a0,a0,a4
80002d06:	fffe0693          	addi	a3,t3,-1 # ffff <ITIM_SIZE+0xbfff>
80002d0a:	00d57733          	and	a4,a0,a3
80002d0e:	410787b3          	sub	a5,a5,a6
80002d12:	8ef1                	and	a3,a3,a2
80002d14:	01055813          	srli	a6,a0,0x10
80002d18:	8241                	srli	a2,a2,0x10
80002d1a:	02d708b3          	mul	a7,a4,a3
80002d1e:	02d806b3          	mul	a3,a6,a3
80002d22:	02c70733          	mul	a4,a4,a2
80002d26:	02c80833          	mul	a6,a6,a2
80002d2a:	00d70633          	add	a2,a4,a3
80002d2e:	0108d713          	srli	a4,a7,0x10
80002d32:	9732                	add	a4,a4,a2
80002d34:	00d77363          	bgeu	a4,a3,80002d3a <__udivdi3+0x32e>
80002d38:	9872                	add	a6,a6,t3
80002d3a:	01075693          	srli	a3,a4,0x10
80002d3e:	96c2                	add	a3,a3,a6
80002d40:	02d7e063          	bltu	a5,a3,80002d60 <__udivdi3+0x354>
80002d44:	d8d797e3          	bne	a5,a3,80002ad2 <__udivdi3+0xc6>
80002d48:	67c1                	lui	a5,0x10
80002d4a:	17fd                	addi	a5,a5,-1
80002d4c:	8f7d                	and	a4,a4,a5
80002d4e:	0742                	slli	a4,a4,0x10
80002d50:	00f8f8b3          	and	a7,a7,a5
80002d54:	00b31333          	sll	t1,t1,a1
80002d58:	9746                	add	a4,a4,a7
80002d5a:	4581                	li	a1,0
80002d5c:	d6e37ce3          	bgeu	t1,a4,80002ad4 <__udivdi3+0xc8>
80002d60:	157d                	addi	a0,a0,-1
80002d62:	bb85                	j	80002ad2 <__udivdi3+0xc6>
80002d64:	4581                	li	a1,0
80002d66:	4501                	li	a0,0
80002d68:	8082                	ret

80002d6a <__divdf3>:
80002d6a:	7179                	addi	sp,sp,-48
80002d6c:	d422                	sw	s0,40(sp)
80002d6e:	ca56                	sw	s5,20(sp)
80002d70:	c462                	sw	s8,8(sp)
80002d72:	d606                	sw	ra,44(sp)
80002d74:	d226                	sw	s1,36(sp)
80002d76:	d04a                	sw	s2,32(sp)
80002d78:	ce4e                	sw	s3,28(sp)
80002d7a:	cc52                	sw	s4,24(sp)
80002d7c:	c85a                	sw	s6,16(sp)
80002d7e:	c65e                	sw	s7,12(sp)
80002d80:	c266                	sw	s9,4(sp)
80002d82:	842a                	mv	s0,a0
80002d84:	8c32                	mv	s8,a2
80002d86:	8ab6                	mv	s5,a3
80002d88:	002024f3          	frrm	s1
80002d8c:	0145d813          	srli	a6,a1,0x14
80002d90:	00c59913          	slli	s2,a1,0xc
80002d94:	7ff87813          	andi	a6,a6,2047
80002d98:	00c95913          	srli	s2,s2,0xc
80002d9c:	01f5da13          	srli	s4,a1,0x1f
80002da0:	02080663          	beqz	a6,80002dcc <__divdf3+0x62>
80002da4:	7ff00793          	li	a5,2047
80002da8:	06f80d63          	beq	a6,a5,80002e22 <__divdf3+0xb8>
80002dac:	01d55b93          	srli	s7,a0,0x1d
80002db0:	090e                	slli	s2,s2,0x3
80002db2:	012bebb3          	or	s7,s7,s2
80002db6:	008007b7          	lui	a5,0x800
80002dba:	00fbebb3          	or	s7,s7,a5
80002dbe:	00351993          	slli	s3,a0,0x3
80002dc2:	c0180b13          	addi	s6,a6,-1023
80002dc6:	4c81                	li	s9,0
80002dc8:	4401                	li	s0,0
80002dca:	a895                	j	80002e3e <__divdf3+0xd4>
80002dcc:	00a96bb3          	or	s7,s2,a0
80002dd0:	0c0b8863          	beqz	s7,80002ea0 <__divdf3+0x136>
80002dd4:	02090c63          	beqz	s2,80002e0c <__divdf3+0xa2>
80002dd8:	854a                	mv	a0,s2
80002dda:	071000ef          	jal	ra,8000364a <__clzsi2>
80002dde:	ff550793          	addi	a5,a0,-11 # fffff5 <SRAM_SIZE+0xfdfff5>
80002de2:	4771                	li	a4,28
80002de4:	02f74963          	blt	a4,a5,80002e16 <__divdf3+0xac>
80002de8:	4bf5                	li	s7,29
80002dea:	ff850993          	addi	s3,a0,-8
80002dee:	40fb8bb3          	sub	s7,s7,a5
80002df2:	01391933          	sll	s2,s2,s3
80002df6:	01745bb3          	srl	s7,s0,s7
80002dfa:	012bebb3          	or	s7,s7,s2
80002dfe:	013419b3          	sll	s3,s0,s3
80002e02:	c0d00813          	li	a6,-1011
80002e06:	40a80b33          	sub	s6,a6,a0
80002e0a:	bf75                	j	80002dc6 <__divdf3+0x5c>
80002e0c:	03f000ef          	jal	ra,8000364a <__clzsi2>
80002e10:	02050513          	addi	a0,a0,32
80002e14:	b7e9                	j	80002dde <__divdf3+0x74>
80002e16:	fd850b93          	addi	s7,a0,-40
80002e1a:	01741bb3          	sll	s7,s0,s7
80002e1e:	4981                	li	s3,0
80002e20:	b7cd                	j	80002e02 <__divdf3+0x98>
80002e22:	00a96bb3          	or	s7,s2,a0
80002e26:	080b8163          	beqz	s7,80002ea8 <__divdf3+0x13e>
80002e2a:	01395413          	srli	s0,s2,0x13
80002e2e:	00144413          	xori	s0,s0,1
80002e32:	89aa                	mv	s3,a0
80002e34:	0412                	slli	s0,s0,0x4
80002e36:	8bca                	mv	s7,s2
80002e38:	7ff00b13          	li	s6,2047
80002e3c:	4c8d                	li	s9,3
80002e3e:	014ad713          	srli	a4,s5,0x14
80002e42:	00ca9913          	slli	s2,s5,0xc
80002e46:	7ff77713          	andi	a4,a4,2047
80002e4a:	87e2                	mv	a5,s8
80002e4c:	00c95913          	srli	s2,s2,0xc
80002e50:	01fada93          	srli	s5,s5,0x1f
80002e54:	cf39                	beqz	a4,80002eb2 <__divdf3+0x148>
80002e56:	7ff00693          	li	a3,2047
80002e5a:	0ad70363          	beq	a4,a3,80002f00 <__divdf3+0x196>
80002e5e:	090e                	slli	s2,s2,0x3
80002e60:	01dc5793          	srli	a5,s8,0x1d
80002e64:	0127e7b3          	or	a5,a5,s2
80002e68:	00800937          	lui	s2,0x800
80002e6c:	0127e933          	or	s2,a5,s2
80002e70:	c0170713          	addi	a4,a4,-1023 # 7c01 <ITIM_SIZE+0x3c01>
80002e74:	003c1793          	slli	a5,s8,0x3
80002e78:	4681                	li	a3,0
80002e7a:	40eb0833          	sub	a6,s6,a4
80002e7e:	002c9713          	slli	a4,s9,0x2
80002e82:	8f55                	or	a4,a4,a3
80002e84:	177d                	addi	a4,a4,-1
80002e86:	45b9                	li	a1,14
80002e88:	015a4633          	xor	a2,s4,s5
80002e8c:	0ae5e663          	bltu	a1,a4,80002f38 <__divdf3+0x1ce>
80002e90:	200015b7          	lui	a1,0x20001
80002e94:	070a                	slli	a4,a4,0x2
80002e96:	94058593          	addi	a1,a1,-1728 # 20000940 <SYS_Clocks+0x158>
80002e9a:	972e                	add	a4,a4,a1
80002e9c:	4318                	lw	a4,0(a4)
80002e9e:	8702                	jr	a4
80002ea0:	4981                	li	s3,0
80002ea2:	4b01                	li	s6,0
80002ea4:	4c85                	li	s9,1
80002ea6:	b70d                	j	80002dc8 <__divdf3+0x5e>
80002ea8:	4981                	li	s3,0
80002eaa:	7ff00b13          	li	s6,2047
80002eae:	4c89                	li	s9,2
80002eb0:	bf21                	j	80002dc8 <__divdf3+0x5e>
80002eb2:	018967b3          	or	a5,s2,s8
80002eb6:	c3b5                	beqz	a5,80002f1a <__divdf3+0x1b0>
80002eb8:	02090963          	beqz	s2,80002eea <__divdf3+0x180>
80002ebc:	854a                	mv	a0,s2
80002ebe:	2771                	jal	8000364a <__clzsi2>
80002ec0:	ff550693          	addi	a3,a0,-11
80002ec4:	47f1                	li	a5,28
80002ec6:	02d7c763          	blt	a5,a3,80002ef4 <__divdf3+0x18a>
80002eca:	4775                	li	a4,29
80002ecc:	ff850793          	addi	a5,a0,-8
80002ed0:	8f15                	sub	a4,a4,a3
80002ed2:	00f91933          	sll	s2,s2,a5
80002ed6:	00ec5733          	srl	a4,s8,a4
80002eda:	01276933          	or	s2,a4,s2
80002ede:	00fc17b3          	sll	a5,s8,a5
80002ee2:	c0d00713          	li	a4,-1011
80002ee6:	8f09                	sub	a4,a4,a0
80002ee8:	bf41                	j	80002e78 <__divdf3+0x10e>
80002eea:	8562                	mv	a0,s8
80002eec:	2fb9                	jal	8000364a <__clzsi2>
80002eee:	02050513          	addi	a0,a0,32
80002ef2:	b7f9                	j	80002ec0 <__divdf3+0x156>
80002ef4:	fd850913          	addi	s2,a0,-40
80002ef8:	012c1933          	sll	s2,s8,s2
80002efc:	4781                	li	a5,0
80002efe:	b7d5                	j	80002ee2 <__divdf3+0x178>
80002f00:	01896633          	or	a2,s2,s8
80002f04:	c205                	beqz	a2,80002f24 <__divdf3+0x1ba>
80002f06:	00080737          	lui	a4,0x80
80002f0a:	00e97733          	and	a4,s2,a4
80002f0e:	e30d                	bnez	a4,80002f30 <__divdf3+0x1c6>
80002f10:	7ff00713          	li	a4,2047
80002f14:	468d                	li	a3,3
80002f16:	4441                	li	s0,16
80002f18:	b78d                	j	80002e7a <__divdf3+0x110>
80002f1a:	4901                	li	s2,0
80002f1c:	4781                	li	a5,0
80002f1e:	4701                	li	a4,0
80002f20:	4685                	li	a3,1
80002f22:	bfa1                	j	80002e7a <__divdf3+0x110>
80002f24:	4901                	li	s2,0
80002f26:	4781                	li	a5,0
80002f28:	7ff00713          	li	a4,2047
80002f2c:	4689                	li	a3,2
80002f2e:	b7b1                	j	80002e7a <__divdf3+0x110>
80002f30:	7ff00713          	li	a4,2047
80002f34:	468d                	li	a3,3
80002f36:	b791                	j	80002e7a <__divdf3+0x110>
80002f38:	01796663          	bltu	s2,s7,80002f44 <__divdf3+0x1da>
80002f3c:	272b9363          	bne	s7,s2,800031a2 <__divdf3+0x438>
80002f40:	26f9e163          	bltu	s3,a5,800031a2 <__divdf3+0x438>
80002f44:	01fb9693          	slli	a3,s7,0x1f
80002f48:	0019d713          	srli	a4,s3,0x1
80002f4c:	01f99513          	slli	a0,s3,0x1f
80002f50:	001bdb93          	srli	s7,s7,0x1
80002f54:	00e6e9b3          	or	s3,a3,a4
80002f58:	00891893          	slli	a7,s2,0x8
80002f5c:	0187d693          	srli	a3,a5,0x18
80002f60:	0116e6b3          	or	a3,a3,a7
80002f64:	0108d893          	srli	a7,a7,0x10
80002f68:	031bdeb3          	divu	t4,s7,a7
80002f6c:	01069313          	slli	t1,a3,0x10
80002f70:	01035313          	srli	t1,t1,0x10
80002f74:	00879593          	slli	a1,a5,0x8
80002f78:	0109d793          	srli	a5,s3,0x10
80002f7c:	031bfbb3          	remu	s7,s7,a7
80002f80:	8e76                	mv	t3,t4
80002f82:	03d30733          	mul	a4,t1,t4
80002f86:	0bc2                	slli	s7,s7,0x10
80002f88:	0177e7b3          	or	a5,a5,s7
80002f8c:	00e7fc63          	bgeu	a5,a4,80002fa4 <__divdf3+0x23a>
80002f90:	97b6                	add	a5,a5,a3
80002f92:	fffe8e13          	addi	t3,t4,-1
80002f96:	00d7e763          	bltu	a5,a3,80002fa4 <__divdf3+0x23a>
80002f9a:	00e7f563          	bgeu	a5,a4,80002fa4 <__divdf3+0x23a>
80002f9e:	ffee8e13          	addi	t3,t4,-2
80002fa2:	97b6                	add	a5,a5,a3
80002fa4:	8f99                	sub	a5,a5,a4
80002fa6:	0317df33          	divu	t5,a5,a7
80002faa:	01099713          	slli	a4,s3,0x10
80002fae:	8341                	srli	a4,a4,0x10
80002fb0:	0317f7b3          	remu	a5,a5,a7
80002fb4:	03e30eb3          	mul	t4,t1,t5
80002fb8:	07c2                	slli	a5,a5,0x10
80002fba:	8f5d                	or	a4,a4,a5
80002fbc:	87fa                	mv	a5,t5
80002fbe:	01d77c63          	bgeu	a4,t4,80002fd6 <__divdf3+0x26c>
80002fc2:	9736                	add	a4,a4,a3
80002fc4:	ffff0793          	addi	a5,t5,-1
80002fc8:	00d76763          	bltu	a4,a3,80002fd6 <__divdf3+0x26c>
80002fcc:	01d77563          	bgeu	a4,t4,80002fd6 <__divdf3+0x26c>
80002fd0:	ffef0793          	addi	a5,t5,-2
80002fd4:	9736                	add	a4,a4,a3
80002fd6:	0e42                	slli	t3,t3,0x10
80002fd8:	6941                	lui	s2,0x10
80002fda:	00fe62b3          	or	t0,t3,a5
80002fde:	fff90e13          	addi	t3,s2,-1 # ffff <ITIM_SIZE+0xbfff>
80002fe2:	01c2f7b3          	and	a5,t0,t3
80002fe6:	0102df13          	srli	t5,t0,0x10
80002fea:	01c5fe33          	and	t3,a1,t3
80002fee:	41d70733          	sub	a4,a4,t4
80002ff2:	0105de93          	srli	t4,a1,0x10
80002ff6:	03c783b3          	mul	t2,a5,t3
80002ffa:	03cf09b3          	mul	s3,t5,t3
80002ffe:	02fe87b3          	mul	a5,t4,a5
80003002:	01378fb3          	add	t6,a5,s3
80003006:	0103d793          	srli	a5,t2,0x10
8000300a:	97fe                	add	a5,a5,t6
8000300c:	03df0f33          	mul	t5,t5,t4
80003010:	0137f363          	bgeu	a5,s3,80003016 <__divdf3+0x2ac>
80003014:	9f4a                	add	t5,t5,s2
80003016:	0107df93          	srli	t6,a5,0x10
8000301a:	9ffa                	add	t6,t6,t5
8000301c:	6f41                	lui	t5,0x10
8000301e:	1f7d                	addi	t5,t5,-1
80003020:	01e7f7b3          	and	a5,a5,t5
80003024:	07c2                	slli	a5,a5,0x10
80003026:	01e3f3b3          	and	t2,t2,t5
8000302a:	979e                	add	a5,a5,t2
8000302c:	01f76763          	bltu	a4,t6,8000303a <__divdf3+0x2d0>
80003030:	8916                	mv	s2,t0
80003032:	03f71e63          	bne	a4,t6,8000306e <__divdf3+0x304>
80003036:	02f57c63          	bgeu	a0,a5,8000306e <__divdf3+0x304>
8000303a:	952e                	add	a0,a0,a1
8000303c:	00b53f33          	sltu	t5,a0,a1
80003040:	9f36                	add	t5,t5,a3
80003042:	977a                	add	a4,a4,t5
80003044:	fff28913          	addi	s2,t0,-1
80003048:	00e6e663          	bltu	a3,a4,80003054 <__divdf3+0x2ea>
8000304c:	02e69163          	bne	a3,a4,8000306e <__divdf3+0x304>
80003050:	00b56f63          	bltu	a0,a1,8000306e <__divdf3+0x304>
80003054:	01f76663          	bltu	a4,t6,80003060 <__divdf3+0x2f6>
80003058:	00ef9b63          	bne	t6,a4,8000306e <__divdf3+0x304>
8000305c:	00f57963          	bgeu	a0,a5,8000306e <__divdf3+0x304>
80003060:	952e                	add	a0,a0,a1
80003062:	00b53f33          	sltu	t5,a0,a1
80003066:	9f36                	add	t5,t5,a3
80003068:	ffe28913          	addi	s2,t0,-2
8000306c:	977a                	add	a4,a4,t5
8000306e:	40f50f33          	sub	t5,a0,a5
80003072:	41f70733          	sub	a4,a4,t6
80003076:	01e53533          	sltu	a0,a0,t5
8000307a:	8f09                	sub	a4,a4,a0
8000307c:	57fd                	li	a5,-1
8000307e:	0ee68663          	beq	a3,a4,8000316a <__divdf3+0x400>
80003082:	031752b3          	divu	t0,a4,a7
80003086:	010f5793          	srli	a5,t5,0x10
8000308a:	03177733          	remu	a4,a4,a7
8000308e:	8f96                	mv	t6,t0
80003090:	02530533          	mul	a0,t1,t0
80003094:	0742                	slli	a4,a4,0x10
80003096:	8fd9                	or	a5,a5,a4
80003098:	00a7fc63          	bgeu	a5,a0,800030b0 <__divdf3+0x346>
8000309c:	97b6                	add	a5,a5,a3
8000309e:	fff28f93          	addi	t6,t0,-1
800030a2:	00d7e763          	bltu	a5,a3,800030b0 <__divdf3+0x346>
800030a6:	00a7f563          	bgeu	a5,a0,800030b0 <__divdf3+0x346>
800030aa:	ffe28f93          	addi	t6,t0,-2
800030ae:	97b6                	add	a5,a5,a3
800030b0:	8f89                	sub	a5,a5,a0
800030b2:	0317d533          	divu	a0,a5,a7
800030b6:	010f1713          	slli	a4,t5,0x10
800030ba:	8341                	srli	a4,a4,0x10
800030bc:	0317f7b3          	remu	a5,a5,a7
800030c0:	02a30333          	mul	t1,t1,a0
800030c4:	07c2                	slli	a5,a5,0x10
800030c6:	8fd9                	or	a5,a5,a4
800030c8:	872a                	mv	a4,a0
800030ca:	0067fc63          	bgeu	a5,t1,800030e2 <__divdf3+0x378>
800030ce:	97b6                	add	a5,a5,a3
800030d0:	fff50713          	addi	a4,a0,-1
800030d4:	00d7e763          	bltu	a5,a3,800030e2 <__divdf3+0x378>
800030d8:	0067f563          	bgeu	a5,t1,800030e2 <__divdf3+0x378>
800030dc:	ffe50713          	addi	a4,a0,-2
800030e0:	97b6                	add	a5,a5,a3
800030e2:	0fc2                	slli	t6,t6,0x10
800030e4:	00efefb3          	or	t6,t6,a4
800030e8:	010f9713          	slli	a4,t6,0x10
800030ec:	8341                	srli	a4,a4,0x10
800030ee:	40678533          	sub	a0,a5,t1
800030f2:	010fd793          	srli	a5,t6,0x10
800030f6:	02ee0333          	mul	t1,t3,a4
800030fa:	03c78e33          	mul	t3,a5,t3
800030fe:	02fe87b3          	mul	a5,t4,a5
80003102:	02ee8eb3          	mul	t4,t4,a4
80003106:	01035713          	srli	a4,t1,0x10
8000310a:	9ef2                	add	t4,t4,t3
8000310c:	9776                	add	a4,a4,t4
8000310e:	01c77463          	bgeu	a4,t3,80003116 <__divdf3+0x3ac>
80003112:	68c1                	lui	a7,0x10
80003114:	97c6                	add	a5,a5,a7
80003116:	01075893          	srli	a7,a4,0x10
8000311a:	98be                	add	a7,a7,a5
8000311c:	67c1                	lui	a5,0x10
8000311e:	17fd                	addi	a5,a5,-1
80003120:	8f7d                	and	a4,a4,a5
80003122:	0742                	slli	a4,a4,0x10
80003124:	00f37333          	and	t1,t1,a5
80003128:	971a                	add	a4,a4,t1
8000312a:	01156663          	bltu	a0,a7,80003136 <__divdf3+0x3cc>
8000312e:	87fe                	mv	a5,t6
80003130:	03151b63          	bne	a0,a7,80003166 <__divdf3+0x3fc>
80003134:	cb1d                	beqz	a4,8000316a <__divdf3+0x400>
80003136:	9536                	add	a0,a0,a3
80003138:	ffff8793          	addi	a5,t6,-1
8000313c:	02d56163          	bltu	a0,a3,8000315e <__divdf3+0x3f4>
80003140:	01156663          	bltu	a0,a7,8000314c <__divdf3+0x3e2>
80003144:	03151163          	bne	a0,a7,80003166 <__divdf3+0x3fc>
80003148:	00e5fd63          	bgeu	a1,a4,80003162 <__divdf3+0x3f8>
8000314c:	00159313          	slli	t1,a1,0x1
80003150:	00b335b3          	sltu	a1,t1,a1
80003154:	95b6                	add	a1,a1,a3
80003156:	952e                	add	a0,a0,a1
80003158:	ffef8793          	addi	a5,t6,-2
8000315c:	859a                	mv	a1,t1
8000315e:	01151463          	bne	a0,a7,80003166 <__divdf3+0x3fc>
80003162:	00b70463          	beq	a4,a1,8000316a <__divdf3+0x400>
80003166:	0017e793          	ori	a5,a5,1
8000316a:	3ff80593          	addi	a1,a6,1023
8000316e:	10b05863          	blez	a1,8000327e <__divdf3+0x514>
80003172:	0077f713          	andi	a4,a5,7
80003176:	cb3d                	beqz	a4,800031ec <__divdf3+0x482>
80003178:	4709                	li	a4,2
8000317a:	00146413          	ori	s0,s0,1
8000317e:	06e48663          	beq	s1,a4,800031ea <__divdf3+0x480>
80003182:	470d                	li	a4,3
80003184:	04e48f63          	beq	s1,a4,800031e2 <__divdf3+0x478>
80003188:	e0b5                	bnez	s1,800031ec <__divdf3+0x482>
8000318a:	00f7f713          	andi	a4,a5,15
8000318e:	4691                	li	a3,4
80003190:	04d70e63          	beq	a4,a3,800031ec <__divdf3+0x482>
80003194:	00478713          	addi	a4,a5,4 # 10004 <ROM_BASE+0x4>
80003198:	00f737b3          	sltu	a5,a4,a5
8000319c:	993e                	add	s2,s2,a5
8000319e:	87ba                	mv	a5,a4
800031a0:	a0b1                	j	800031ec <__divdf3+0x482>
800031a2:	187d                	addi	a6,a6,-1
800031a4:	4501                	li	a0,0
800031a6:	bb4d                	j	80002f58 <__divdf3+0x1ee>
800031a8:	8652                	mv	a2,s4
800031aa:	895e                	mv	s2,s7
800031ac:	87ce                	mv	a5,s3
800031ae:	86e6                	mv	a3,s9
800031b0:	470d                	li	a4,3
800031b2:	22e68063          	beq	a3,a4,800033d2 <__divdf3+0x668>
800031b6:	4705                	li	a4,1
800031b8:	22e68463          	beq	a3,a4,800033e0 <__divdf3+0x676>
800031bc:	4709                	li	a4,2
800031be:	fae696e3          	bne	a3,a4,8000316a <__divdf3+0x400>
800031c2:	a029                	j	800031cc <__divdf3+0x462>
800031c4:	8656                	mv	a2,s5
800031c6:	b7ed                	j	800031b0 <__divdf3+0x446>
800031c8:	00846413          	ori	s0,s0,8
800031cc:	4501                	li	a0,0
800031ce:	4781                	li	a5,0
800031d0:	7ff00713          	li	a4,2047
800031d4:	a0a1                	j	8000321c <__divdf3+0x4b2>
800031d6:	00080937          	lui	s2,0x80
800031da:	4781                	li	a5,0
800031dc:	4601                	li	a2,0
800031de:	468d                	li	a3,3
800031e0:	bfc1                	j	800031b0 <__divdf3+0x446>
800031e2:	e609                	bnez	a2,800031ec <__divdf3+0x482>
800031e4:	00878713          	addi	a4,a5,8
800031e8:	bf45                	j	80003198 <__divdf3+0x42e>
800031ea:	fe6d                	bnez	a2,800031e4 <__divdf3+0x47a>
800031ec:	01000737          	lui	a4,0x1000
800031f0:	00e97733          	and	a4,s2,a4
800031f4:	cb01                	beqz	a4,80003204 <__divdf3+0x49a>
800031f6:	ff000737          	lui	a4,0xff000
800031fa:	177d                	addi	a4,a4,-1
800031fc:	00e97933          	and	s2,s2,a4
80003200:	40080593          	addi	a1,a6,1024
80003204:	7fe00713          	li	a4,2046
80003208:	04b74663          	blt	a4,a1,80003254 <__divdf3+0x4ea>
8000320c:	0037d713          	srli	a4,a5,0x3
80003210:	01d91793          	slli	a5,s2,0x1d
80003214:	8fd9                	or	a5,a5,a4
80003216:	00395513          	srli	a0,s2,0x3
8000321a:	872e                	mv	a4,a1
8000321c:	7ff006b7          	lui	a3,0x7ff00
80003220:	0752                	slli	a4,a4,0x14
80003222:	0532                	slli	a0,a0,0xc
80003224:	8f75                	and	a4,a4,a3
80003226:	8131                	srli	a0,a0,0xc
80003228:	8f49                	or	a4,a4,a0
8000322a:	067e                	slli	a2,a2,0x1f
8000322c:	00c766b3          	or	a3,a4,a2
80003230:	853e                	mv	a0,a5
80003232:	85b6                	mv	a1,a3
80003234:	c019                	beqz	s0,8000323a <__divdf3+0x4d0>
80003236:	00142073          	csrs	fflags,s0
8000323a:	50b2                	lw	ra,44(sp)
8000323c:	5422                	lw	s0,40(sp)
8000323e:	5492                	lw	s1,36(sp)
80003240:	5902                	lw	s2,32(sp)
80003242:	49f2                	lw	s3,28(sp)
80003244:	4a62                	lw	s4,24(sp)
80003246:	4ad2                	lw	s5,20(sp)
80003248:	4b42                	lw	s6,16(sp)
8000324a:	4bb2                	lw	s7,12(sp)
8000324c:	4c22                	lw	s8,8(sp)
8000324e:	4c92                	lw	s9,4(sp)
80003250:	6145                	addi	sp,sp,48
80003252:	8082                	ret
80003254:	4789                	li	a5,2
80003256:	02f48263          	beq	s1,a5,8000327a <__divdf3+0x510>
8000325a:	478d                	li	a5,3
8000325c:	00f48763          	beq	s1,a5,8000326a <__divdf3+0x500>
80003260:	e491                	bnez	s1,8000326c <__divdf3+0x502>
80003262:	4781                	li	a5,0
80003264:	7ff00713          	li	a4,2047
80003268:	a029                	j	80003272 <__divdf3+0x508>
8000326a:	de65                	beqz	a2,80003262 <__divdf3+0x4f8>
8000326c:	57fd                	li	a5,-1
8000326e:	7fe00713          	li	a4,2046
80003272:	00546413          	ori	s0,s0,5
80003276:	853e                	mv	a0,a5
80003278:	b755                	j	8000321c <__divdf3+0x4b2>
8000327a:	f665                	bnez	a2,80003262 <__divdf3+0x4f8>
8000327c:	bfc5                	j	8000326c <__divdf3+0x502>
8000327e:	4705                	li	a4,1
80003280:	e1b1                	bnez	a1,800032c4 <__divdf3+0x55a>
80003282:	0077f693          	andi	a3,a5,7
80003286:	874a                	mv	a4,s2
80003288:	ca95                	beqz	a3,800032bc <__divdf3+0x552>
8000328a:	4689                	li	a3,2
8000328c:	00146413          	ori	s0,s0,1
80003290:	02d48563          	beq	s1,a3,800032ba <__divdf3+0x550>
80003294:	468d                	li	a3,3
80003296:	00d48e63          	beq	s1,a3,800032b2 <__divdf3+0x548>
8000329a:	e08d                	bnez	s1,800032bc <__divdf3+0x552>
8000329c:	00f7f693          	andi	a3,a5,15
800032a0:	4511                	li	a0,4
800032a2:	00a68d63          	beq	a3,a0,800032bc <__divdf3+0x552>
800032a6:	ffc7b713          	sltiu	a4,a5,-4
800032aa:	00174713          	xori	a4,a4,1
800032ae:	974a                	add	a4,a4,s2
800032b0:	a031                	j	800032bc <__divdf3+0x552>
800032b2:	e609                	bnez	a2,800032bc <__divdf3+0x552>
800032b4:	ff87b713          	sltiu	a4,a5,-8
800032b8:	bfcd                	j	800032aa <__divdf3+0x540>
800032ba:	fe6d                	bnez	a2,800032b4 <__divdf3+0x54a>
800032bc:	8361                	srli	a4,a4,0x18
800032be:	00174713          	xori	a4,a4,1
800032c2:	8b05                	andi	a4,a4,1
800032c4:	4505                	li	a0,1
800032c6:	8d0d                	sub	a0,a0,a1
800032c8:	03800693          	li	a3,56
800032cc:	0ca6c063          	blt	a3,a0,8000338c <__divdf3+0x622>
800032d0:	46fd                	li	a3,31
800032d2:	04a6c963          	blt	a3,a0,80003324 <__divdf3+0x5ba>
800032d6:	41e80813          	addi	a6,a6,1054
800032da:	00a7d5b3          	srl	a1,a5,a0
800032de:	010916b3          	sll	a3,s2,a6
800032e2:	01079833          	sll	a6,a5,a6
800032e6:	8ecd                	or	a3,a3,a1
800032e8:	01003833          	snez	a6,a6
800032ec:	0106e7b3          	or	a5,a3,a6
800032f0:	00a95533          	srl	a0,s2,a0
800032f4:	0077f693          	andi	a3,a5,7
800032f8:	ceb9                	beqz	a3,80003356 <__divdf3+0x5ec>
800032fa:	4689                	li	a3,2
800032fc:	00146413          	ori	s0,s0,1
80003300:	04d48a63          	beq	s1,a3,80003354 <__divdf3+0x5ea>
80003304:	468d                	li	a3,3
80003306:	04d48363          	beq	s1,a3,8000334c <__divdf3+0x5e2>
8000330a:	e4b1                	bnez	s1,80003356 <__divdf3+0x5ec>
8000330c:	00f7f693          	andi	a3,a5,15
80003310:	4591                	li	a1,4
80003312:	04b68263          	beq	a3,a1,80003356 <__divdf3+0x5ec>
80003316:	00478693          	addi	a3,a5,4
8000331a:	00f6b7b3          	sltu	a5,a3,a5
8000331e:	953e                	add	a0,a0,a5
80003320:	87b6                	mv	a5,a3
80003322:	a815                	j	80003356 <__divdf3+0x5ec>
80003324:	5685                	li	a3,-31
80003326:	8e8d                	sub	a3,a3,a1
80003328:	02000893          	li	a7,32
8000332c:	00d956b3          	srl	a3,s2,a3
80003330:	4581                	li	a1,0
80003332:	01150663          	beq	a0,a7,8000333e <__divdf3+0x5d4>
80003336:	43e80813          	addi	a6,a6,1086
8000333a:	010915b3          	sll	a1,s2,a6
8000333e:	8ddd                	or	a1,a1,a5
80003340:	00b035b3          	snez	a1,a1
80003344:	00b6e7b3          	or	a5,a3,a1
80003348:	4501                	li	a0,0
8000334a:	b76d                	j	800032f4 <__divdf3+0x58a>
8000334c:	e609                	bnez	a2,80003356 <__divdf3+0x5ec>
8000334e:	00878693          	addi	a3,a5,8
80003352:	b7e1                	j	8000331a <__divdf3+0x5b0>
80003354:	fe6d                	bnez	a2,8000334e <__divdf3+0x5e4>
80003356:	008006b7          	lui	a3,0x800
8000335a:	8ee9                	and	a3,a3,a0
8000335c:	ca81                	beqz	a3,8000336c <__divdf3+0x602>
8000335e:	00146413          	ori	s0,s0,1
80003362:	4501                	li	a0,0
80003364:	4781                	li	a5,0
80003366:	e305                	bnez	a4,80003386 <__divdf3+0x61c>
80003368:	4705                	li	a4,1
8000336a:	bd4d                	j	8000321c <__divdf3+0x4b2>
8000336c:	0037d693          	srli	a3,a5,0x3
80003370:	01d51793          	slli	a5,a0,0x1d
80003374:	8fd5                	or	a5,a5,a3
80003376:	810d                	srli	a0,a0,0x3
80003378:	ea0702e3          	beqz	a4,8000321c <__divdf3+0x4b2>
8000337c:	00147713          	andi	a4,s0,1
80003380:	e8070ee3          	beqz	a4,8000321c <__divdf3+0x4b2>
80003384:	4701                	li	a4,0
80003386:	00246413          	ori	s0,s0,2
8000338a:	bd49                	j	8000321c <__divdf3+0x4b2>
8000338c:	0127e7b3          	or	a5,a5,s2
80003390:	cf89                	beqz	a5,800033aa <__divdf3+0x640>
80003392:	4789                	li	a5,2
80003394:	00146413          	ori	s0,s0,1
80003398:	02f48263          	beq	s1,a5,800033bc <__divdf3+0x652>
8000339c:	478d                	li	a5,3
8000339e:	00f48b63          	beq	s1,a5,800033b4 <__divdf3+0x64a>
800033a2:	4785                	li	a5,1
800033a4:	e091                	bnez	s1,800033a8 <__divdf3+0x63e>
800033a6:	4795                	li	a5,5
800033a8:	838d                	srli	a5,a5,0x3
800033aa:	00246413          	ori	s0,s0,2
800033ae:	4501                	li	a0,0
800033b0:	4701                	li	a4,0
800033b2:	b5ad                	j	8000321c <__divdf3+0x4b2>
800033b4:	47a5                	li	a5,9
800033b6:	da6d                	beqz	a2,800033a8 <__divdf3+0x63e>
800033b8:	4785                	li	a5,1
800033ba:	b7fd                	j	800033a8 <__divdf3+0x63e>
800033bc:	47a5                	li	a5,9
800033be:	f66d                	bnez	a2,800033a8 <__divdf3+0x63e>
800033c0:	bfe5                	j	800033b8 <__divdf3+0x64e>
800033c2:	00080537          	lui	a0,0x80
800033c6:	4781                	li	a5,0
800033c8:	7ff00713          	li	a4,2047
800033cc:	4601                	li	a2,0
800033ce:	4441                	li	s0,16
800033d0:	b5b1                	j	8000321c <__divdf3+0x4b2>
800033d2:	00080537          	lui	a0,0x80
800033d6:	4781                	li	a5,0
800033d8:	7ff00713          	li	a4,2047
800033dc:	4601                	li	a2,0
800033de:	bd3d                	j	8000321c <__divdf3+0x4b2>
800033e0:	4501                	li	a0,0
800033e2:	4781                	li	a5,0
800033e4:	b7f1                	j	800033b0 <__divdf3+0x646>

800033e6 <__floatunsidf>:
800033e6:	1141                	addi	sp,sp,-16
800033e8:	c422                	sw	s0,8(sp)
800033ea:	c606                	sw	ra,12(sp)
800033ec:	842a                	mv	s0,a0
800033ee:	cd1d                	beqz	a0,8000342c <__floatunsidf+0x46>
800033f0:	2ca9                	jal	8000364a <__clzsi2>
800033f2:	41e00713          	li	a4,1054
800033f6:	47a9                	li	a5,10
800033f8:	8f09                	sub	a4,a4,a0
800033fa:	02a7c463          	blt	a5,a0,80003422 <__floatunsidf+0x3c>
800033fe:	47ad                	li	a5,11
80003400:	8f89                	sub	a5,a5,a0
80003402:	0555                	addi	a0,a0,21
80003404:	00f457b3          	srl	a5,s0,a5
80003408:	00a41433          	sll	s0,s0,a0
8000340c:	40b2                	lw	ra,12(sp)
8000340e:	8522                	mv	a0,s0
80003410:	07b2                	slli	a5,a5,0xc
80003412:	4422                	lw	s0,8(sp)
80003414:	0752                	slli	a4,a4,0x14
80003416:	83b1                	srli	a5,a5,0xc
80003418:	00f766b3          	or	a3,a4,a5
8000341c:	85b6                	mv	a1,a3
8000341e:	0141                	addi	sp,sp,16
80003420:	8082                	ret
80003422:	1555                	addi	a0,a0,-11
80003424:	00a417b3          	sll	a5,s0,a0
80003428:	4401                	li	s0,0
8000342a:	b7cd                	j	8000340c <__floatunsidf+0x26>
8000342c:	4781                	li	a5,0
8000342e:	4701                	li	a4,0
80003430:	bff1                	j	8000340c <__floatunsidf+0x26>

80003432 <__truncdfsf2>:
80003432:	00202673          	frrm	a2
80003436:	0145d813          	srli	a6,a1,0x14
8000343a:	7ff87813          	andi	a6,a6,2047
8000343e:	00c59793          	slli	a5,a1,0xc
80003442:	00180713          	addi	a4,a6,1
80003446:	83a5                	srli	a5,a5,0x9
80003448:	01d55693          	srli	a3,a0,0x1d
8000344c:	7fe77713          	andi	a4,a4,2046
80003450:	8edd                	or	a3,a3,a5
80003452:	81fd                	srli	a1,a1,0x1f
80003454:	00351793          	slli	a5,a0,0x3
80003458:	16070463          	beqz	a4,800035c0 <__truncdfsf2+0x18e>
8000345c:	c8080893          	addi	a7,a6,-896
80003460:	0fe00713          	li	a4,254
80003464:	05175b63          	bge	a4,a7,800034ba <__truncdfsf2+0x88>
80003468:	1a060063          	beqz	a2,80003608 <__truncdfsf2+0x1d6>
8000346c:	478d                	li	a5,3
8000346e:	00f61963          	bne	a2,a5,80003480 <__truncdfsf2+0x4e>
80003472:	18058b63          	beqz	a1,80003608 <__truncdfsf2+0x1d6>
80003476:	57fd                	li	a5,-1
80003478:	0fe00893          	li	a7,254
8000347c:	4701                	li	a4,0
8000347e:	a811                	j	80003492 <__truncdfsf2+0x60>
80003480:	4789                	li	a5,2
80003482:	fef61ae3          	bne	a2,a5,80003476 <__truncdfsf2+0x44>
80003486:	18059163          	bnez	a1,80003608 <__truncdfsf2+0x1d6>
8000348a:	4701                	li	a4,0
8000348c:	57fd                	li	a5,-1
8000348e:	0fe00893          	li	a7,254
80003492:	4815                	li	a6,5
80003494:	4689                	li	a3,2
80003496:	00186813          	ori	a6,a6,1
8000349a:	18d60463          	beq	a2,a3,80003622 <__truncdfsf2+0x1f0>
8000349e:	468d                	li	a3,3
800034a0:	16d60d63          	beq	a2,a3,8000361a <__truncdfsf2+0x1e8>
800034a4:	e619                	bnez	a2,800034b2 <__truncdfsf2+0x80>
800034a6:	00f7f693          	andi	a3,a5,15
800034aa:	4511                	li	a0,4
800034ac:	00a68363          	beq	a3,a0,800034b2 <__truncdfsf2+0x80>
800034b0:	0791                	addi	a5,a5,4
800034b2:	c329                	beqz	a4,800034f4 <__truncdfsf2+0xc2>
800034b4:	00286813          	ori	a6,a6,2
800034b8:	a835                	j	800034f4 <__truncdfsf2+0xc2>
800034ba:	0f104263          	bgtz	a7,8000359e <__truncdfsf2+0x16c>
800034be:	5725                	li	a4,-23
800034c0:	10e8c563          	blt	a7,a4,800035ca <__truncdfsf2+0x198>
800034c4:	00800737          	lui	a4,0x800
800034c8:	4579                	li	a0,30
800034ca:	8ed9                	or	a3,a3,a4
800034cc:	41150533          	sub	a0,a0,a7
800034d0:	477d                	li	a4,31
800034d2:	06a74963          	blt	a4,a0,80003544 <__truncdfsf2+0x112>
800034d6:	c8280813          	addi	a6,a6,-894
800034da:	00a7d533          	srl	a0,a5,a0
800034de:	010797b3          	sll	a5,a5,a6
800034e2:	00f037b3          	snez	a5,a5
800034e6:	010696b3          	sll	a3,a3,a6
800034ea:	8fd5                	or	a5,a5,a3
800034ec:	8fc9                	or	a5,a5,a0
800034ee:	efb5                	bnez	a5,8000356a <__truncdfsf2+0x138>
800034f0:	4881                	li	a7,0
800034f2:	4801                	li	a6,0
800034f4:	04000737          	lui	a4,0x4000
800034f8:	8f7d                	and	a4,a4,a5
800034fa:	cb11                	beqz	a4,8000350e <__truncdfsf2+0xdc>
800034fc:	0885                	addi	a7,a7,1
800034fe:	0ff00713          	li	a4,255
80003502:	12e88363          	beq	a7,a4,80003628 <__truncdfsf2+0x1f6>
80003506:	fc000737          	lui	a4,0xfc000
8000350a:	177d                	addi	a4,a4,-1
8000350c:	8ff9                	and	a5,a5,a4
8000350e:	0037d713          	srli	a4,a5,0x3
80003512:	0ff00793          	li	a5,255
80003516:	00f89663          	bne	a7,a5,80003522 <__truncdfsf2+0xf0>
8000351a:	c701                	beqz	a4,80003522 <__truncdfsf2+0xf0>
8000351c:	00400737          	lui	a4,0x400
80003520:	4581                	li	a1,0
80003522:	01789793          	slli	a5,a7,0x17
80003526:	7f8006b7          	lui	a3,0x7f800
8000352a:	0726                	slli	a4,a4,0x9
8000352c:	8ff5                	and	a5,a5,a3
8000352e:	8325                	srli	a4,a4,0x9
80003530:	8fd9                	or	a5,a5,a4
80003532:	05fe                	slli	a1,a1,0x1f
80003534:	8fcd                	or	a5,a5,a1
80003536:	00080463          	beqz	a6,8000353e <__truncdfsf2+0x10c>
8000353a:	00182073          	csrs	fflags,a6
8000353e:	f0078553          	fmv.w.x	fa0,a5
80003542:	8082                	ret
80003544:	5779                	li	a4,-2
80003546:	411708b3          	sub	a7,a4,a7
8000354a:	02000313          	li	t1,32
8000354e:	0116d8b3          	srl	a7,a3,a7
80003552:	4701                	li	a4,0
80003554:	00650663          	beq	a0,t1,80003560 <__truncdfsf2+0x12e>
80003558:	ca280713          	addi	a4,a6,-862
8000355c:	00e69733          	sll	a4,a3,a4
80003560:	8f5d                	or	a4,a4,a5
80003562:	00e03733          	snez	a4,a4
80003566:	00e8e7b3          	or	a5,a7,a4
8000356a:	00179713          	slli	a4,a5,0x1
8000356e:	00777693          	andi	a3,a4,7
80003572:	4801                	li	a6,0
80003574:	ce99                	beqz	a3,80003592 <__truncdfsf2+0x160>
80003576:	4689                	li	a3,2
80003578:	08d60363          	beq	a2,a3,800035fe <__truncdfsf2+0x1cc>
8000357c:	468d                	li	a3,3
8000357e:	06d60b63          	beq	a2,a3,800035f4 <__truncdfsf2+0x1c2>
80003582:	4805                	li	a6,1
80003584:	e619                	bnez	a2,80003592 <__truncdfsf2+0x160>
80003586:	00f77693          	andi	a3,a4,15
8000358a:	4511                	li	a0,4
8000358c:	00a68363          	beq	a3,a0,80003592 <__truncdfsf2+0x160>
80003590:	0711                	addi	a4,a4,4
80003592:	836d                	srli	a4,a4,0x1b
80003594:	00174713          	xori	a4,a4,1
80003598:	8b05                	andi	a4,a4,1
8000359a:	4881                	li	a7,0
8000359c:	a811                	j	800035b0 <__truncdfsf2+0x17e>
8000359e:	051a                	slli	a0,a0,0x6
800035a0:	00a03533          	snez	a0,a0
800035a4:	068e                	slli	a3,a3,0x3
800035a6:	83f5                	srli	a5,a5,0x1d
800035a8:	8d55                	or	a0,a0,a3
800035aa:	8fc9                	or	a5,a5,a0
800035ac:	4701                	li	a4,0
800035ae:	4801                	li	a6,0
800035b0:	0077f693          	andi	a3,a5,7
800035b4:	ee0690e3          	bnez	a3,80003494 <__truncdfsf2+0x62>
800035b8:	df15                	beqz	a4,800034f4 <__truncdfsf2+0xc2>
800035ba:	00187713          	andi	a4,a6,1
800035be:	bdd5                	j	800034b2 <__truncdfsf2+0x80>
800035c0:	8fd5                	or	a5,a5,a3
800035c2:	00081663          	bnez	a6,800035ce <__truncdfsf2+0x19c>
800035c6:	4881                	li	a7,0
800035c8:	d795                	beqz	a5,800034f4 <__truncdfsf2+0xc2>
800035ca:	4785                	li	a5,1
800035cc:	bf79                	j	8000356a <__truncdfsf2+0x138>
800035ce:	c3b1                	beqz	a5,80003612 <__truncdfsf2+0x1e0>
800035d0:	7ff00793          	li	a5,2047
800035d4:	00f81e63          	bne	a6,a5,800035f0 <__truncdfsf2+0x1be>
800035d8:	0166d813          	srli	a6,a3,0x16
800035dc:	00184813          	xori	a6,a6,1
800035e0:	0812                	slli	a6,a6,0x4
800035e2:	068e                	slli	a3,a3,0x3
800035e4:	020007b7          	lui	a5,0x2000
800035e8:	8fd5                	or	a5,a5,a3
800035ea:	0ff00893          	li	a7,255
800035ee:	b7c9                	j	800035b0 <__truncdfsf2+0x17e>
800035f0:	4801                	li	a6,0
800035f2:	bfc5                	j	800035e2 <__truncdfsf2+0x1b0>
800035f4:	882e                	mv	a6,a1
800035f6:	fdd1                	bnez	a1,80003592 <__truncdfsf2+0x160>
800035f8:	0721                	addi	a4,a4,8
800035fa:	4805                	li	a6,1
800035fc:	bf59                	j	80003592 <__truncdfsf2+0x160>
800035fe:	4805                	li	a6,1
80003600:	d9c9                	beqz	a1,80003592 <__truncdfsf2+0x160>
80003602:	0721                	addi	a4,a4,8
80003604:	882e                	mv	a6,a1
80003606:	b771                	j	80003592 <__truncdfsf2+0x160>
80003608:	4781                	li	a5,0
8000360a:	0ff00893          	li	a7,255
8000360e:	4815                	li	a6,5
80003610:	b5d5                	j	800034f4 <__truncdfsf2+0xc2>
80003612:	4801                	li	a6,0
80003614:	0ff00893          	li	a7,255
80003618:	bdf1                	j	800034f4 <__truncdfsf2+0xc2>
8000361a:	e8059ce3          	bnez	a1,800034b2 <__truncdfsf2+0x80>
8000361e:	07a1                	addi	a5,a5,8
80003620:	bd49                	j	800034b2 <__truncdfsf2+0x80>
80003622:	e80588e3          	beqz	a1,800034b2 <__truncdfsf2+0x80>
80003626:	bfe5                	j	8000361e <__truncdfsf2+0x1ec>
80003628:	4781                	li	a5,0
8000362a:	ce09                	beqz	a2,80003644 <__truncdfsf2+0x212>
8000362c:	470d                	li	a4,3
8000362e:	00e61763          	bne	a2,a4,8000363c <__truncdfsf2+0x20a>
80003632:	c989                	beqz	a1,80003644 <__truncdfsf2+0x212>
80003634:	57fd                	li	a5,-1
80003636:	0fe00893          	li	a7,254
8000363a:	a029                	j	80003644 <__truncdfsf2+0x212>
8000363c:	4709                	li	a4,2
8000363e:	fee61be3          	bne	a2,a4,80003634 <__truncdfsf2+0x202>
80003642:	d9ed                	beqz	a1,80003634 <__truncdfsf2+0x202>
80003644:	00586813          	ori	a6,a6,5
80003648:	b5d9                	j	8000350e <__truncdfsf2+0xdc>

8000364a <__clzsi2>:
8000364a:	67c1                	lui	a5,0x10
8000364c:	02f57663          	bgeu	a0,a5,80003678 <__clzsi2+0x2e>
80003650:	10053793          	sltiu	a5,a0,256
80003654:	0017c793          	xori	a5,a5,1
80003658:	078e                	slli	a5,a5,0x3
8000365a:	20001737          	lui	a4,0x20001
8000365e:	02000693          	li	a3,32
80003662:	8e9d                	sub	a3,a3,a5
80003664:	00f55533          	srl	a0,a0,a5
80003668:	97c70793          	addi	a5,a4,-1668 # 2000097c <__clz_tab>
8000366c:	97aa                	add	a5,a5,a0
8000366e:	0007c503          	lbu	a0,0(a5) # 10000 <ROM_BASE>
80003672:	40a68533          	sub	a0,a3,a0
80003676:	8082                	ret
80003678:	01000737          	lui	a4,0x1000
8000367c:	47c1                	li	a5,16
8000367e:	fce56ee3          	bltu	a0,a4,8000365a <__clzsi2+0x10>
80003682:	47e1                	li	a5,24
80003684:	bfd9                	j	8000365a <__clzsi2+0x10>
	...
